/*
 * Copyright 2018-2022 Yury Gribov
 *
 * The MIT License (MIT)
 *
 * Use of this source code is governed by MIT license that can be
 * found in the LICENSE.txt file.
 */

  .data

  .globl _libSDL2_so_tramp_table
  .hidden _libSDL2_so_tramp_table
  .align 8
_libSDL2_so_tramp_table:
  .zero 6712

  .text

  .globl _libSDL2_so_tramp_resolve
  .hidden _libSDL2_so_tramp_resolve

  .globl _libSDL2_so_save_regs_and_resolve
  .hidden _libSDL2_so_save_regs_and_resolve
  .type _libSDL2_so_save_regs_and_resolve, %function
_libSDL2_so_save_regs_and_resolve:
  .cfi_startproc

#define PUSH_REG(reg) pushq %reg ; .cfi_adjust_cfa_offset 8; .cfi_rel_offset reg, 0
#define POP_REG(reg) popq %reg ; .cfi_adjust_cfa_offset -8; .cfi_restore reg

#define DEC_STACK(d) subq $d, %rsp; .cfi_adjust_cfa_offset d
#define INC_STACK(d) addq $d, %rsp; .cfi_adjust_cfa_offset -d

#define PUSH_XMM_REG(reg) DEC_STACK(16); movdqa %reg, (%rsp); .cfi_rel_offset reg, 0
#define POP_XMM_REG(reg) movdqa (%rsp), %reg; .cfi_restore reg; INC_STACK(16)

  // Slow path which calls dlsym, taken only on first call.
  // All registers are stored to handle arbitrary calling conventions
  // (except x87 FPU registers which do not have to be preserved).
  // For Dwarf directives, read https://www.imperialviolet.org/2017/01/18/cfi.html.

  .cfi_def_cfa_offset 8  // Return address

  // FIXME: AVX (YMM, ZMM) registers are NOT saved to simplify code.

  PUSH_REG(rdi)  // 16
  mov 0x10(%rsp), %rdi
  PUSH_REG(rax)
  PUSH_REG(rbx)  // 16
  PUSH_REG(rcx)
  PUSH_REG(rdx)  // 16
  PUSH_REG(rbp)
  PUSH_REG(rsi)  // 16
  PUSH_REG(r8)
  PUSH_REG(r9)  // 16
  PUSH_REG(r10)
  PUSH_REG(r11)  // 16
  PUSH_REG(r12)
  PUSH_REG(r13)  // 16
  PUSH_REG(r14)
  PUSH_REG(r15)  // 16
  PUSH_XMM_REG(xmm0)
  PUSH_XMM_REG(xmm1)
  PUSH_XMM_REG(xmm2)
  PUSH_XMM_REG(xmm3)
  PUSH_XMM_REG(xmm4)
  PUSH_XMM_REG(xmm5)
  PUSH_XMM_REG(xmm6)
  PUSH_XMM_REG(xmm7)

  // Stack is just 8-byte aligned but callee will re-align to 16
  call _libSDL2_so_tramp_resolve

  POP_XMM_REG(xmm7)
  POP_XMM_REG(xmm6)
  POP_XMM_REG(xmm5)
  POP_XMM_REG(xmm4)
  POP_XMM_REG(xmm3)
  POP_XMM_REG(xmm2)
  POP_XMM_REG(xmm1)
  POP_XMM_REG(xmm0)  // 16
  POP_REG(r15)
  POP_REG(r14)  // 16
  POP_REG(r13)
  POP_REG(r12)  // 16
  POP_REG(r11)
  POP_REG(r10)  // 16
  POP_REG(r9)
  POP_REG(r8)  // 16
  POP_REG(rsi)
  POP_REG(rbp)  // 16
  POP_REG(rdx)
  POP_REG(rcx)  // 16
  POP_REG(rbx)
  POP_REG(rax)  // 16
  POP_REG(rdi)

  ret

  .cfi_endproc

/*
 * Copyright 2018-2022 Yury Gribov
 *
 * The MIT License (MIT)
 *
 * Use of this source code is governed by MIT license that can be
 * found in the LICENSE.txt file.
 */

  .globl SDL_AddEventWatch
  .p2align 4
  .type SDL_AddEventWatch, %function
#ifndef IMPLIB_EXPORT_SHIMS
  .hidden SDL_AddEventWatch
#endif
SDL_AddEventWatch:
  .cfi_startproc
  .cfi_def_cfa_offset 8  // Return address
  // Intel opt. manual says to
  // "make the fall-through code following a conditional branch be the likely target for a branch with a forward target"
  // to hint static predictor.
  cmpq $0, _libSDL2_so_tramp_table+0(%rip)
  je 2f
1:
  jmp *_libSDL2_so_tramp_table+0(%rip)
2:
  pushq $0
  .cfi_adjust_cfa_offset 8
  call _libSDL2_so_save_regs_and_resolve
  addq $8, %rsp
  .cfi_adjust_cfa_offset -8
  jmp 1b
  .cfi_endproc

/*
 * Copyright 2018-2022 Yury Gribov
 *
 * The MIT License (MIT)
 *
 * Use of this source code is governed by MIT license that can be
 * found in the LICENSE.txt file.
 */

  .globl SDL_AddHintCallback
  .p2align 4
  .type SDL_AddHintCallback, %function
#ifndef IMPLIB_EXPORT_SHIMS
  .hidden SDL_AddHintCallback
#endif
SDL_AddHintCallback:
  .cfi_startproc
  .cfi_def_cfa_offset 8  // Return address
  // Intel opt. manual says to
  // "make the fall-through code following a conditional branch be the likely target for a branch with a forward target"
  // to hint static predictor.
  cmpq $0, _libSDL2_so_tramp_table+8(%rip)
  je 2f
1:
  jmp *_libSDL2_so_tramp_table+8(%rip)
2:
  pushq $1
  .cfi_adjust_cfa_offset 8
  call _libSDL2_so_save_regs_and_resolve
  addq $8, %rsp
  .cfi_adjust_cfa_offset -8
  jmp 1b
  .cfi_endproc

/*
 * Copyright 2018-2022 Yury Gribov
 *
 * The MIT License (MIT)
 *
 * Use of this source code is governed by MIT license that can be
 * found in the LICENSE.txt file.
 */

  .globl SDL_AddTimer
  .p2align 4
  .type SDL_AddTimer, %function
#ifndef IMPLIB_EXPORT_SHIMS
  .hidden SDL_AddTimer
#endif
SDL_AddTimer:
  .cfi_startproc
  .cfi_def_cfa_offset 8  // Return address
  // Intel opt. manual says to
  // "make the fall-through code following a conditional branch be the likely target for a branch with a forward target"
  // to hint static predictor.
  cmpq $0, _libSDL2_so_tramp_table+16(%rip)
  je 2f
1:
  jmp *_libSDL2_so_tramp_table+16(%rip)
2:
  pushq $2
  .cfi_adjust_cfa_offset 8
  call _libSDL2_so_save_regs_and_resolve
  addq $8, %rsp
  .cfi_adjust_cfa_offset -8
  jmp 1b
  .cfi_endproc

/*
 * Copyright 2018-2022 Yury Gribov
 *
 * The MIT License (MIT)
 *
 * Use of this source code is governed by MIT license that can be
 * found in the LICENSE.txt file.
 */

  .globl SDL_AllocFormat
  .p2align 4
  .type SDL_AllocFormat, %function
#ifndef IMPLIB_EXPORT_SHIMS
  .hidden SDL_AllocFormat
#endif
SDL_AllocFormat:
  .cfi_startproc
  .cfi_def_cfa_offset 8  // Return address
  // Intel opt. manual says to
  // "make the fall-through code following a conditional branch be the likely target for a branch with a forward target"
  // to hint static predictor.
  cmpq $0, _libSDL2_so_tramp_table+24(%rip)
  je 2f
1:
  jmp *_libSDL2_so_tramp_table+24(%rip)
2:
  pushq $3
  .cfi_adjust_cfa_offset 8
  call _libSDL2_so_save_regs_and_resolve
  addq $8, %rsp
  .cfi_adjust_cfa_offset -8
  jmp 1b
  .cfi_endproc

/*
 * Copyright 2018-2022 Yury Gribov
 *
 * The MIT License (MIT)
 *
 * Use of this source code is governed by MIT license that can be
 * found in the LICENSE.txt file.
 */

  .globl SDL_AllocPalette
  .p2align 4
  .type SDL_AllocPalette, %function
#ifndef IMPLIB_EXPORT_SHIMS
  .hidden SDL_AllocPalette
#endif
SDL_AllocPalette:
  .cfi_startproc
  .cfi_def_cfa_offset 8  // Return address
  // Intel opt. manual says to
  // "make the fall-through code following a conditional branch be the likely target for a branch with a forward target"
  // to hint static predictor.
  cmpq $0, _libSDL2_so_tramp_table+32(%rip)
  je 2f
1:
  jmp *_libSDL2_so_tramp_table+32(%rip)
2:
  pushq $4
  .cfi_adjust_cfa_offset 8
  call _libSDL2_so_save_regs_and_resolve
  addq $8, %rsp
  .cfi_adjust_cfa_offset -8
  jmp 1b
  .cfi_endproc

/*
 * Copyright 2018-2022 Yury Gribov
 *
 * The MIT License (MIT)
 *
 * Use of this source code is governed by MIT license that can be
 * found in the LICENSE.txt file.
 */

  .globl SDL_AllocRW
  .p2align 4
  .type SDL_AllocRW, %function
#ifndef IMPLIB_EXPORT_SHIMS
  .hidden SDL_AllocRW
#endif
SDL_AllocRW:
  .cfi_startproc
  .cfi_def_cfa_offset 8  // Return address
  // Intel opt. manual says to
  // "make the fall-through code following a conditional branch be the likely target for a branch with a forward target"
  // to hint static predictor.
  cmpq $0, _libSDL2_so_tramp_table+40(%rip)
  je 2f
1:
  jmp *_libSDL2_so_tramp_table+40(%rip)
2:
  pushq $5
  .cfi_adjust_cfa_offset 8
  call _libSDL2_so_save_regs_and_resolve
  addq $8, %rsp
  .cfi_adjust_cfa_offset -8
  jmp 1b
  .cfi_endproc

/*
 * Copyright 2018-2022 Yury Gribov
 *
 * The MIT License (MIT)
 *
 * Use of this source code is governed by MIT license that can be
 * found in the LICENSE.txt file.
 */

  .globl SDL_AtomicAdd
  .p2align 4
  .type SDL_AtomicAdd, %function
#ifndef IMPLIB_EXPORT_SHIMS
  .hidden SDL_AtomicAdd
#endif
SDL_AtomicAdd:
  .cfi_startproc
  .cfi_def_cfa_offset 8  // Return address
  // Intel opt. manual says to
  // "make the fall-through code following a conditional branch be the likely target for a branch with a forward target"
  // to hint static predictor.
  cmpq $0, _libSDL2_so_tramp_table+48(%rip)
  je 2f
1:
  jmp *_libSDL2_so_tramp_table+48(%rip)
2:
  pushq $6
  .cfi_adjust_cfa_offset 8
  call _libSDL2_so_save_regs_and_resolve
  addq $8, %rsp
  .cfi_adjust_cfa_offset -8
  jmp 1b
  .cfi_endproc

/*
 * Copyright 2018-2022 Yury Gribov
 *
 * The MIT License (MIT)
 *
 * Use of this source code is governed by MIT license that can be
 * found in the LICENSE.txt file.
 */

  .globl SDL_AtomicCAS
  .p2align 4
  .type SDL_AtomicCAS, %function
#ifndef IMPLIB_EXPORT_SHIMS
  .hidden SDL_AtomicCAS
#endif
SDL_AtomicCAS:
  .cfi_startproc
  .cfi_def_cfa_offset 8  // Return address
  // Intel opt. manual says to
  // "make the fall-through code following a conditional branch be the likely target for a branch with a forward target"
  // to hint static predictor.
  cmpq $0, _libSDL2_so_tramp_table+56(%rip)
  je 2f
1:
  jmp *_libSDL2_so_tramp_table+56(%rip)
2:
  pushq $7
  .cfi_adjust_cfa_offset 8
  call _libSDL2_so_save_regs_and_resolve
  addq $8, %rsp
  .cfi_adjust_cfa_offset -8
  jmp 1b
  .cfi_endproc

/*
 * Copyright 2018-2022 Yury Gribov
 *
 * The MIT License (MIT)
 *
 * Use of this source code is governed by MIT license that can be
 * found in the LICENSE.txt file.
 */

  .globl SDL_AtomicCASPtr
  .p2align 4
  .type SDL_AtomicCASPtr, %function
#ifndef IMPLIB_EXPORT_SHIMS
  .hidden SDL_AtomicCASPtr
#endif
SDL_AtomicCASPtr:
  .cfi_startproc
  .cfi_def_cfa_offset 8  // Return address
  // Intel opt. manual says to
  // "make the fall-through code following a conditional branch be the likely target for a branch with a forward target"
  // to hint static predictor.
  cmpq $0, _libSDL2_so_tramp_table+64(%rip)
  je 2f
1:
  jmp *_libSDL2_so_tramp_table+64(%rip)
2:
  pushq $8
  .cfi_adjust_cfa_offset 8
  call _libSDL2_so_save_regs_and_resolve
  addq $8, %rsp
  .cfi_adjust_cfa_offset -8
  jmp 1b
  .cfi_endproc

/*
 * Copyright 2018-2022 Yury Gribov
 *
 * The MIT License (MIT)
 *
 * Use of this source code is governed by MIT license that can be
 * found in the LICENSE.txt file.
 */

  .globl SDL_AtomicGet
  .p2align 4
  .type SDL_AtomicGet, %function
#ifndef IMPLIB_EXPORT_SHIMS
  .hidden SDL_AtomicGet
#endif
SDL_AtomicGet:
  .cfi_startproc
  .cfi_def_cfa_offset 8  // Return address
  // Intel opt. manual says to
  // "make the fall-through code following a conditional branch be the likely target for a branch with a forward target"
  // to hint static predictor.
  cmpq $0, _libSDL2_so_tramp_table+72(%rip)
  je 2f
1:
  jmp *_libSDL2_so_tramp_table+72(%rip)
2:
  pushq $9
  .cfi_adjust_cfa_offset 8
  call _libSDL2_so_save_regs_and_resolve
  addq $8, %rsp
  .cfi_adjust_cfa_offset -8
  jmp 1b
  .cfi_endproc

/*
 * Copyright 2018-2022 Yury Gribov
 *
 * The MIT License (MIT)
 *
 * Use of this source code is governed by MIT license that can be
 * found in the LICENSE.txt file.
 */

  .globl SDL_AtomicGetPtr
  .p2align 4
  .type SDL_AtomicGetPtr, %function
#ifndef IMPLIB_EXPORT_SHIMS
  .hidden SDL_AtomicGetPtr
#endif
SDL_AtomicGetPtr:
  .cfi_startproc
  .cfi_def_cfa_offset 8  // Return address
  // Intel opt. manual says to
  // "make the fall-through code following a conditional branch be the likely target for a branch with a forward target"
  // to hint static predictor.
  cmpq $0, _libSDL2_so_tramp_table+80(%rip)
  je 2f
1:
  jmp *_libSDL2_so_tramp_table+80(%rip)
2:
  pushq $10
  .cfi_adjust_cfa_offset 8
  call _libSDL2_so_save_regs_and_resolve
  addq $8, %rsp
  .cfi_adjust_cfa_offset -8
  jmp 1b
  .cfi_endproc

/*
 * Copyright 2018-2022 Yury Gribov
 *
 * The MIT License (MIT)
 *
 * Use of this source code is governed by MIT license that can be
 * found in the LICENSE.txt file.
 */

  .globl SDL_AtomicLock
  .p2align 4
  .type SDL_AtomicLock, %function
#ifndef IMPLIB_EXPORT_SHIMS
  .hidden SDL_AtomicLock
#endif
SDL_AtomicLock:
  .cfi_startproc
  .cfi_def_cfa_offset 8  // Return address
  // Intel opt. manual says to
  // "make the fall-through code following a conditional branch be the likely target for a branch with a forward target"
  // to hint static predictor.
  cmpq $0, _libSDL2_so_tramp_table+88(%rip)
  je 2f
1:
  jmp *_libSDL2_so_tramp_table+88(%rip)
2:
  pushq $11
  .cfi_adjust_cfa_offset 8
  call _libSDL2_so_save_regs_and_resolve
  addq $8, %rsp
  .cfi_adjust_cfa_offset -8
  jmp 1b
  .cfi_endproc

/*
 * Copyright 2018-2022 Yury Gribov
 *
 * The MIT License (MIT)
 *
 * Use of this source code is governed by MIT license that can be
 * found in the LICENSE.txt file.
 */

  .globl SDL_AtomicSet
  .p2align 4
  .type SDL_AtomicSet, %function
#ifndef IMPLIB_EXPORT_SHIMS
  .hidden SDL_AtomicSet
#endif
SDL_AtomicSet:
  .cfi_startproc
  .cfi_def_cfa_offset 8  // Return address
  // Intel opt. manual says to
  // "make the fall-through code following a conditional branch be the likely target for a branch with a forward target"
  // to hint static predictor.
  cmpq $0, _libSDL2_so_tramp_table+96(%rip)
  je 2f
1:
  jmp *_libSDL2_so_tramp_table+96(%rip)
2:
  pushq $12
  .cfi_adjust_cfa_offset 8
  call _libSDL2_so_save_regs_and_resolve
  addq $8, %rsp
  .cfi_adjust_cfa_offset -8
  jmp 1b
  .cfi_endproc

/*
 * Copyright 2018-2022 Yury Gribov
 *
 * The MIT License (MIT)
 *
 * Use of this source code is governed by MIT license that can be
 * found in the LICENSE.txt file.
 */

  .globl SDL_AtomicSetPtr
  .p2align 4
  .type SDL_AtomicSetPtr, %function
#ifndef IMPLIB_EXPORT_SHIMS
  .hidden SDL_AtomicSetPtr
#endif
SDL_AtomicSetPtr:
  .cfi_startproc
  .cfi_def_cfa_offset 8  // Return address
  // Intel opt. manual says to
  // "make the fall-through code following a conditional branch be the likely target for a branch with a forward target"
  // to hint static predictor.
  cmpq $0, _libSDL2_so_tramp_table+104(%rip)
  je 2f
1:
  jmp *_libSDL2_so_tramp_table+104(%rip)
2:
  pushq $13
  .cfi_adjust_cfa_offset 8
  call _libSDL2_so_save_regs_and_resolve
  addq $8, %rsp
  .cfi_adjust_cfa_offset -8
  jmp 1b
  .cfi_endproc

/*
 * Copyright 2018-2022 Yury Gribov
 *
 * The MIT License (MIT)
 *
 * Use of this source code is governed by MIT license that can be
 * found in the LICENSE.txt file.
 */

  .globl SDL_AtomicTryLock
  .p2align 4
  .type SDL_AtomicTryLock, %function
#ifndef IMPLIB_EXPORT_SHIMS
  .hidden SDL_AtomicTryLock
#endif
SDL_AtomicTryLock:
  .cfi_startproc
  .cfi_def_cfa_offset 8  // Return address
  // Intel opt. manual says to
  // "make the fall-through code following a conditional branch be the likely target for a branch with a forward target"
  // to hint static predictor.
  cmpq $0, _libSDL2_so_tramp_table+112(%rip)
  je 2f
1:
  jmp *_libSDL2_so_tramp_table+112(%rip)
2:
  pushq $14
  .cfi_adjust_cfa_offset 8
  call _libSDL2_so_save_regs_and_resolve
  addq $8, %rsp
  .cfi_adjust_cfa_offset -8
  jmp 1b
  .cfi_endproc

/*
 * Copyright 2018-2022 Yury Gribov
 *
 * The MIT License (MIT)
 *
 * Use of this source code is governed by MIT license that can be
 * found in the LICENSE.txt file.
 */

  .globl SDL_AtomicUnlock
  .p2align 4
  .type SDL_AtomicUnlock, %function
#ifndef IMPLIB_EXPORT_SHIMS
  .hidden SDL_AtomicUnlock
#endif
SDL_AtomicUnlock:
  .cfi_startproc
  .cfi_def_cfa_offset 8  // Return address
  // Intel opt. manual says to
  // "make the fall-through code following a conditional branch be the likely target for a branch with a forward target"
  // to hint static predictor.
  cmpq $0, _libSDL2_so_tramp_table+120(%rip)
  je 2f
1:
  jmp *_libSDL2_so_tramp_table+120(%rip)
2:
  pushq $15
  .cfi_adjust_cfa_offset 8
  call _libSDL2_so_save_regs_and_resolve
  addq $8, %rsp
  .cfi_adjust_cfa_offset -8
  jmp 1b
  .cfi_endproc

/*
 * Copyright 2018-2022 Yury Gribov
 *
 * The MIT License (MIT)
 *
 * Use of this source code is governed by MIT license that can be
 * found in the LICENSE.txt file.
 */

  .globl SDL_AudioInit
  .p2align 4
  .type SDL_AudioInit, %function
#ifndef IMPLIB_EXPORT_SHIMS
  .hidden SDL_AudioInit
#endif
SDL_AudioInit:
  .cfi_startproc
  .cfi_def_cfa_offset 8  // Return address
  // Intel opt. manual says to
  // "make the fall-through code following a conditional branch be the likely target for a branch with a forward target"
  // to hint static predictor.
  cmpq $0, _libSDL2_so_tramp_table+128(%rip)
  je 2f
1:
  jmp *_libSDL2_so_tramp_table+128(%rip)
2:
  pushq $16
  .cfi_adjust_cfa_offset 8
  call _libSDL2_so_save_regs_and_resolve
  addq $8, %rsp
  .cfi_adjust_cfa_offset -8
  jmp 1b
  .cfi_endproc

/*
 * Copyright 2018-2022 Yury Gribov
 *
 * The MIT License (MIT)
 *
 * Use of this source code is governed by MIT license that can be
 * found in the LICENSE.txt file.
 */

  .globl SDL_AudioQuit
  .p2align 4
  .type SDL_AudioQuit, %function
#ifndef IMPLIB_EXPORT_SHIMS
  .hidden SDL_AudioQuit
#endif
SDL_AudioQuit:
  .cfi_startproc
  .cfi_def_cfa_offset 8  // Return address
  // Intel opt. manual says to
  // "make the fall-through code following a conditional branch be the likely target for a branch with a forward target"
  // to hint static predictor.
  cmpq $0, _libSDL2_so_tramp_table+136(%rip)
  je 2f
1:
  jmp *_libSDL2_so_tramp_table+136(%rip)
2:
  pushq $17
  .cfi_adjust_cfa_offset 8
  call _libSDL2_so_save_regs_and_resolve
  addq $8, %rsp
  .cfi_adjust_cfa_offset -8
  jmp 1b
  .cfi_endproc

/*
 * Copyright 2018-2022 Yury Gribov
 *
 * The MIT License (MIT)
 *
 * Use of this source code is governed by MIT license that can be
 * found in the LICENSE.txt file.
 */

  .globl SDL_AudioStreamAvailable
  .p2align 4
  .type SDL_AudioStreamAvailable, %function
#ifndef IMPLIB_EXPORT_SHIMS
  .hidden SDL_AudioStreamAvailable
#endif
SDL_AudioStreamAvailable:
  .cfi_startproc
  .cfi_def_cfa_offset 8  // Return address
  // Intel opt. manual says to
  // "make the fall-through code following a conditional branch be the likely target for a branch with a forward target"
  // to hint static predictor.
  cmpq $0, _libSDL2_so_tramp_table+144(%rip)
  je 2f
1:
  jmp *_libSDL2_so_tramp_table+144(%rip)
2:
  pushq $18
  .cfi_adjust_cfa_offset 8
  call _libSDL2_so_save_regs_and_resolve
  addq $8, %rsp
  .cfi_adjust_cfa_offset -8
  jmp 1b
  .cfi_endproc

/*
 * Copyright 2018-2022 Yury Gribov
 *
 * The MIT License (MIT)
 *
 * Use of this source code is governed by MIT license that can be
 * found in the LICENSE.txt file.
 */

  .globl SDL_AudioStreamClear
  .p2align 4
  .type SDL_AudioStreamClear, %function
#ifndef IMPLIB_EXPORT_SHIMS
  .hidden SDL_AudioStreamClear
#endif
SDL_AudioStreamClear:
  .cfi_startproc
  .cfi_def_cfa_offset 8  // Return address
  // Intel opt. manual says to
  // "make the fall-through code following a conditional branch be the likely target for a branch with a forward target"
  // to hint static predictor.
  cmpq $0, _libSDL2_so_tramp_table+152(%rip)
  je 2f
1:
  jmp *_libSDL2_so_tramp_table+152(%rip)
2:
  pushq $19
  .cfi_adjust_cfa_offset 8
  call _libSDL2_so_save_regs_and_resolve
  addq $8, %rsp
  .cfi_adjust_cfa_offset -8
  jmp 1b
  .cfi_endproc

/*
 * Copyright 2018-2022 Yury Gribov
 *
 * The MIT License (MIT)
 *
 * Use of this source code is governed by MIT license that can be
 * found in the LICENSE.txt file.
 */

  .globl SDL_AudioStreamFlush
  .p2align 4
  .type SDL_AudioStreamFlush, %function
#ifndef IMPLIB_EXPORT_SHIMS
  .hidden SDL_AudioStreamFlush
#endif
SDL_AudioStreamFlush:
  .cfi_startproc
  .cfi_def_cfa_offset 8  // Return address
  // Intel opt. manual says to
  // "make the fall-through code following a conditional branch be the likely target for a branch with a forward target"
  // to hint static predictor.
  cmpq $0, _libSDL2_so_tramp_table+160(%rip)
  je 2f
1:
  jmp *_libSDL2_so_tramp_table+160(%rip)
2:
  pushq $20
  .cfi_adjust_cfa_offset 8
  call _libSDL2_so_save_regs_and_resolve
  addq $8, %rsp
  .cfi_adjust_cfa_offset -8
  jmp 1b
  .cfi_endproc

/*
 * Copyright 2018-2022 Yury Gribov
 *
 * The MIT License (MIT)
 *
 * Use of this source code is governed by MIT license that can be
 * found in the LICENSE.txt file.
 */

  .globl SDL_AudioStreamGet
  .p2align 4
  .type SDL_AudioStreamGet, %function
#ifndef IMPLIB_EXPORT_SHIMS
  .hidden SDL_AudioStreamGet
#endif
SDL_AudioStreamGet:
  .cfi_startproc
  .cfi_def_cfa_offset 8  // Return address
  // Intel opt. manual says to
  // "make the fall-through code following a conditional branch be the likely target for a branch with a forward target"
  // to hint static predictor.
  cmpq $0, _libSDL2_so_tramp_table+168(%rip)
  je 2f
1:
  jmp *_libSDL2_so_tramp_table+168(%rip)
2:
  pushq $21
  .cfi_adjust_cfa_offset 8
  call _libSDL2_so_save_regs_and_resolve
  addq $8, %rsp
  .cfi_adjust_cfa_offset -8
  jmp 1b
  .cfi_endproc

/*
 * Copyright 2018-2022 Yury Gribov
 *
 * The MIT License (MIT)
 *
 * Use of this source code is governed by MIT license that can be
 * found in the LICENSE.txt file.
 */

  .globl SDL_AudioStreamPut
  .p2align 4
  .type SDL_AudioStreamPut, %function
#ifndef IMPLIB_EXPORT_SHIMS
  .hidden SDL_AudioStreamPut
#endif
SDL_AudioStreamPut:
  .cfi_startproc
  .cfi_def_cfa_offset 8  // Return address
  // Intel opt. manual says to
  // "make the fall-through code following a conditional branch be the likely target for a branch with a forward target"
  // to hint static predictor.
  cmpq $0, _libSDL2_so_tramp_table+176(%rip)
  je 2f
1:
  jmp *_libSDL2_so_tramp_table+176(%rip)
2:
  pushq $22
  .cfi_adjust_cfa_offset 8
  call _libSDL2_so_save_regs_and_resolve
  addq $8, %rsp
  .cfi_adjust_cfa_offset -8
  jmp 1b
  .cfi_endproc

/*
 * Copyright 2018-2022 Yury Gribov
 *
 * The MIT License (MIT)
 *
 * Use of this source code is governed by MIT license that can be
 * found in the LICENSE.txt file.
 */

  .globl SDL_BuildAudioCVT
  .p2align 4
  .type SDL_BuildAudioCVT, %function
#ifndef IMPLIB_EXPORT_SHIMS
  .hidden SDL_BuildAudioCVT
#endif
SDL_BuildAudioCVT:
  .cfi_startproc
  .cfi_def_cfa_offset 8  // Return address
  // Intel opt. manual says to
  // "make the fall-through code following a conditional branch be the likely target for a branch with a forward target"
  // to hint static predictor.
  cmpq $0, _libSDL2_so_tramp_table+184(%rip)
  je 2f
1:
  jmp *_libSDL2_so_tramp_table+184(%rip)
2:
  pushq $23
  .cfi_adjust_cfa_offset 8
  call _libSDL2_so_save_regs_and_resolve
  addq $8, %rsp
  .cfi_adjust_cfa_offset -8
  jmp 1b
  .cfi_endproc

/*
 * Copyright 2018-2022 Yury Gribov
 *
 * The MIT License (MIT)
 *
 * Use of this source code is governed by MIT license that can be
 * found in the LICENSE.txt file.
 */

  .globl SDL_CalculateGammaRamp
  .p2align 4
  .type SDL_CalculateGammaRamp, %function
#ifndef IMPLIB_EXPORT_SHIMS
  .hidden SDL_CalculateGammaRamp
#endif
SDL_CalculateGammaRamp:
  .cfi_startproc
  .cfi_def_cfa_offset 8  // Return address
  // Intel opt. manual says to
  // "make the fall-through code following a conditional branch be the likely target for a branch with a forward target"
  // to hint static predictor.
  cmpq $0, _libSDL2_so_tramp_table+192(%rip)
  je 2f
1:
  jmp *_libSDL2_so_tramp_table+192(%rip)
2:
  pushq $24
  .cfi_adjust_cfa_offset 8
  call _libSDL2_so_save_regs_and_resolve
  addq $8, %rsp
  .cfi_adjust_cfa_offset -8
  jmp 1b
  .cfi_endproc

/*
 * Copyright 2018-2022 Yury Gribov
 *
 * The MIT License (MIT)
 *
 * Use of this source code is governed by MIT license that can be
 * found in the LICENSE.txt file.
 */

  .globl SDL_CaptureMouse
  .p2align 4
  .type SDL_CaptureMouse, %function
#ifndef IMPLIB_EXPORT_SHIMS
  .hidden SDL_CaptureMouse
#endif
SDL_CaptureMouse:
  .cfi_startproc
  .cfi_def_cfa_offset 8  // Return address
  // Intel opt. manual says to
  // "make the fall-through code following a conditional branch be the likely target for a branch with a forward target"
  // to hint static predictor.
  cmpq $0, _libSDL2_so_tramp_table+200(%rip)
  je 2f
1:
  jmp *_libSDL2_so_tramp_table+200(%rip)
2:
  pushq $25
  .cfi_adjust_cfa_offset 8
  call _libSDL2_so_save_regs_and_resolve
  addq $8, %rsp
  .cfi_adjust_cfa_offset -8
  jmp 1b
  .cfi_endproc

/*
 * Copyright 2018-2022 Yury Gribov
 *
 * The MIT License (MIT)
 *
 * Use of this source code is governed by MIT license that can be
 * found in the LICENSE.txt file.
 */

  .globl SDL_ClearComposition
  .p2align 4
  .type SDL_ClearComposition, %function
#ifndef IMPLIB_EXPORT_SHIMS
  .hidden SDL_ClearComposition
#endif
SDL_ClearComposition:
  .cfi_startproc
  .cfi_def_cfa_offset 8  // Return address
  // Intel opt. manual says to
  // "make the fall-through code following a conditional branch be the likely target for a branch with a forward target"
  // to hint static predictor.
  cmpq $0, _libSDL2_so_tramp_table+208(%rip)
  je 2f
1:
  jmp *_libSDL2_so_tramp_table+208(%rip)
2:
  pushq $26
  .cfi_adjust_cfa_offset 8
  call _libSDL2_so_save_regs_and_resolve
  addq $8, %rsp
  .cfi_adjust_cfa_offset -8
  jmp 1b
  .cfi_endproc

/*
 * Copyright 2018-2022 Yury Gribov
 *
 * The MIT License (MIT)
 *
 * Use of this source code is governed by MIT license that can be
 * found in the LICENSE.txt file.
 */

  .globl SDL_ClearError
  .p2align 4
  .type SDL_ClearError, %function
#ifndef IMPLIB_EXPORT_SHIMS
  .hidden SDL_ClearError
#endif
SDL_ClearError:
  .cfi_startproc
  .cfi_def_cfa_offset 8  // Return address
  // Intel opt. manual says to
  // "make the fall-through code following a conditional branch be the likely target for a branch with a forward target"
  // to hint static predictor.
  cmpq $0, _libSDL2_so_tramp_table+216(%rip)
  je 2f
1:
  jmp *_libSDL2_so_tramp_table+216(%rip)
2:
  pushq $27
  .cfi_adjust_cfa_offset 8
  call _libSDL2_so_save_regs_and_resolve
  addq $8, %rsp
  .cfi_adjust_cfa_offset -8
  jmp 1b
  .cfi_endproc

/*
 * Copyright 2018-2022 Yury Gribov
 *
 * The MIT License (MIT)
 *
 * Use of this source code is governed by MIT license that can be
 * found in the LICENSE.txt file.
 */

  .globl SDL_ClearHints
  .p2align 4
  .type SDL_ClearHints, %function
#ifndef IMPLIB_EXPORT_SHIMS
  .hidden SDL_ClearHints
#endif
SDL_ClearHints:
  .cfi_startproc
  .cfi_def_cfa_offset 8  // Return address
  // Intel opt. manual says to
  // "make the fall-through code following a conditional branch be the likely target for a branch with a forward target"
  // to hint static predictor.
  cmpq $0, _libSDL2_so_tramp_table+224(%rip)
  je 2f
1:
  jmp *_libSDL2_so_tramp_table+224(%rip)
2:
  pushq $28
  .cfi_adjust_cfa_offset 8
  call _libSDL2_so_save_regs_and_resolve
  addq $8, %rsp
  .cfi_adjust_cfa_offset -8
  jmp 1b
  .cfi_endproc

/*
 * Copyright 2018-2022 Yury Gribov
 *
 * The MIT License (MIT)
 *
 * Use of this source code is governed by MIT license that can be
 * found in the LICENSE.txt file.
 */

  .globl SDL_ClearQueuedAudio
  .p2align 4
  .type SDL_ClearQueuedAudio, %function
#ifndef IMPLIB_EXPORT_SHIMS
  .hidden SDL_ClearQueuedAudio
#endif
SDL_ClearQueuedAudio:
  .cfi_startproc
  .cfi_def_cfa_offset 8  // Return address
  // Intel opt. manual says to
  // "make the fall-through code following a conditional branch be the likely target for a branch with a forward target"
  // to hint static predictor.
  cmpq $0, _libSDL2_so_tramp_table+232(%rip)
  je 2f
1:
  jmp *_libSDL2_so_tramp_table+232(%rip)
2:
  pushq $29
  .cfi_adjust_cfa_offset 8
  call _libSDL2_so_save_regs_and_resolve
  addq $8, %rsp
  .cfi_adjust_cfa_offset -8
  jmp 1b
  .cfi_endproc

/*
 * Copyright 2018-2022 Yury Gribov
 *
 * The MIT License (MIT)
 *
 * Use of this source code is governed by MIT license that can be
 * found in the LICENSE.txt file.
 */

  .globl SDL_CloseAudio
  .p2align 4
  .type SDL_CloseAudio, %function
#ifndef IMPLIB_EXPORT_SHIMS
  .hidden SDL_CloseAudio
#endif
SDL_CloseAudio:
  .cfi_startproc
  .cfi_def_cfa_offset 8  // Return address
  // Intel opt. manual says to
  // "make the fall-through code following a conditional branch be the likely target for a branch with a forward target"
  // to hint static predictor.
  cmpq $0, _libSDL2_so_tramp_table+240(%rip)
  je 2f
1:
  jmp *_libSDL2_so_tramp_table+240(%rip)
2:
  pushq $30
  .cfi_adjust_cfa_offset 8
  call _libSDL2_so_save_regs_and_resolve
  addq $8, %rsp
  .cfi_adjust_cfa_offset -8
  jmp 1b
  .cfi_endproc

/*
 * Copyright 2018-2022 Yury Gribov
 *
 * The MIT License (MIT)
 *
 * Use of this source code is governed by MIT license that can be
 * found in the LICENSE.txt file.
 */

  .globl SDL_CloseAudioDevice
  .p2align 4
  .type SDL_CloseAudioDevice, %function
#ifndef IMPLIB_EXPORT_SHIMS
  .hidden SDL_CloseAudioDevice
#endif
SDL_CloseAudioDevice:
  .cfi_startproc
  .cfi_def_cfa_offset 8  // Return address
  // Intel opt. manual says to
  // "make the fall-through code following a conditional branch be the likely target for a branch with a forward target"
  // to hint static predictor.
  cmpq $0, _libSDL2_so_tramp_table+248(%rip)
  je 2f
1:
  jmp *_libSDL2_so_tramp_table+248(%rip)
2:
  pushq $31
  .cfi_adjust_cfa_offset 8
  call _libSDL2_so_save_regs_and_resolve
  addq $8, %rsp
  .cfi_adjust_cfa_offset -8
  jmp 1b
  .cfi_endproc

/*
 * Copyright 2018-2022 Yury Gribov
 *
 * The MIT License (MIT)
 *
 * Use of this source code is governed by MIT license that can be
 * found in the LICENSE.txt file.
 */

  .globl SDL_ComposeCustomBlendMode
  .p2align 4
  .type SDL_ComposeCustomBlendMode, %function
#ifndef IMPLIB_EXPORT_SHIMS
  .hidden SDL_ComposeCustomBlendMode
#endif
SDL_ComposeCustomBlendMode:
  .cfi_startproc
  .cfi_def_cfa_offset 8  // Return address
  // Intel opt. manual says to
  // "make the fall-through code following a conditional branch be the likely target for a branch with a forward target"
  // to hint static predictor.
  cmpq $0, _libSDL2_so_tramp_table+256(%rip)
  je 2f
1:
  jmp *_libSDL2_so_tramp_table+256(%rip)
2:
  pushq $32
  .cfi_adjust_cfa_offset 8
  call _libSDL2_so_save_regs_and_resolve
  addq $8, %rsp
  .cfi_adjust_cfa_offset -8
  jmp 1b
  .cfi_endproc

/*
 * Copyright 2018-2022 Yury Gribov
 *
 * The MIT License (MIT)
 *
 * Use of this source code is governed by MIT license that can be
 * found in the LICENSE.txt file.
 */

  .globl SDL_CondBroadcast
  .p2align 4
  .type SDL_CondBroadcast, %function
#ifndef IMPLIB_EXPORT_SHIMS
  .hidden SDL_CondBroadcast
#endif
SDL_CondBroadcast:
  .cfi_startproc
  .cfi_def_cfa_offset 8  // Return address
  // Intel opt. manual says to
  // "make the fall-through code following a conditional branch be the likely target for a branch with a forward target"
  // to hint static predictor.
  cmpq $0, _libSDL2_so_tramp_table+264(%rip)
  je 2f
1:
  jmp *_libSDL2_so_tramp_table+264(%rip)
2:
  pushq $33
  .cfi_adjust_cfa_offset 8
  call _libSDL2_so_save_regs_and_resolve
  addq $8, %rsp
  .cfi_adjust_cfa_offset -8
  jmp 1b
  .cfi_endproc

/*
 * Copyright 2018-2022 Yury Gribov
 *
 * The MIT License (MIT)
 *
 * Use of this source code is governed by MIT license that can be
 * found in the LICENSE.txt file.
 */

  .globl SDL_CondSignal
  .p2align 4
  .type SDL_CondSignal, %function
#ifndef IMPLIB_EXPORT_SHIMS
  .hidden SDL_CondSignal
#endif
SDL_CondSignal:
  .cfi_startproc
  .cfi_def_cfa_offset 8  // Return address
  // Intel opt. manual says to
  // "make the fall-through code following a conditional branch be the likely target for a branch with a forward target"
  // to hint static predictor.
  cmpq $0, _libSDL2_so_tramp_table+272(%rip)
  je 2f
1:
  jmp *_libSDL2_so_tramp_table+272(%rip)
2:
  pushq $34
  .cfi_adjust_cfa_offset 8
  call _libSDL2_so_save_regs_and_resolve
  addq $8, %rsp
  .cfi_adjust_cfa_offset -8
  jmp 1b
  .cfi_endproc

/*
 * Copyright 2018-2022 Yury Gribov
 *
 * The MIT License (MIT)
 *
 * Use of this source code is governed by MIT license that can be
 * found in the LICENSE.txt file.
 */

  .globl SDL_CondWait
  .p2align 4
  .type SDL_CondWait, %function
#ifndef IMPLIB_EXPORT_SHIMS
  .hidden SDL_CondWait
#endif
SDL_CondWait:
  .cfi_startproc
  .cfi_def_cfa_offset 8  // Return address
  // Intel opt. manual says to
  // "make the fall-through code following a conditional branch be the likely target for a branch with a forward target"
  // to hint static predictor.
  cmpq $0, _libSDL2_so_tramp_table+280(%rip)
  je 2f
1:
  jmp *_libSDL2_so_tramp_table+280(%rip)
2:
  pushq $35
  .cfi_adjust_cfa_offset 8
  call _libSDL2_so_save_regs_and_resolve
  addq $8, %rsp
  .cfi_adjust_cfa_offset -8
  jmp 1b
  .cfi_endproc

/*
 * Copyright 2018-2022 Yury Gribov
 *
 * The MIT License (MIT)
 *
 * Use of this source code is governed by MIT license that can be
 * found in the LICENSE.txt file.
 */

  .globl SDL_CondWaitTimeout
  .p2align 4
  .type SDL_CondWaitTimeout, %function
#ifndef IMPLIB_EXPORT_SHIMS
  .hidden SDL_CondWaitTimeout
#endif
SDL_CondWaitTimeout:
  .cfi_startproc
  .cfi_def_cfa_offset 8  // Return address
  // Intel opt. manual says to
  // "make the fall-through code following a conditional branch be the likely target for a branch with a forward target"
  // to hint static predictor.
  cmpq $0, _libSDL2_so_tramp_table+288(%rip)
  je 2f
1:
  jmp *_libSDL2_so_tramp_table+288(%rip)
2:
  pushq $36
  .cfi_adjust_cfa_offset 8
  call _libSDL2_so_save_regs_and_resolve
  addq $8, %rsp
  .cfi_adjust_cfa_offset -8
  jmp 1b
  .cfi_endproc

/*
 * Copyright 2018-2022 Yury Gribov
 *
 * The MIT License (MIT)
 *
 * Use of this source code is governed by MIT license that can be
 * found in the LICENSE.txt file.
 */

  .globl SDL_ConvertAudio
  .p2align 4
  .type SDL_ConvertAudio, %function
#ifndef IMPLIB_EXPORT_SHIMS
  .hidden SDL_ConvertAudio
#endif
SDL_ConvertAudio:
  .cfi_startproc
  .cfi_def_cfa_offset 8  // Return address
  // Intel opt. manual says to
  // "make the fall-through code following a conditional branch be the likely target for a branch with a forward target"
  // to hint static predictor.
  cmpq $0, _libSDL2_so_tramp_table+296(%rip)
  je 2f
1:
  jmp *_libSDL2_so_tramp_table+296(%rip)
2:
  pushq $37
  .cfi_adjust_cfa_offset 8
  call _libSDL2_so_save_regs_and_resolve
  addq $8, %rsp
  .cfi_adjust_cfa_offset -8
  jmp 1b
  .cfi_endproc

/*
 * Copyright 2018-2022 Yury Gribov
 *
 * The MIT License (MIT)
 *
 * Use of this source code is governed by MIT license that can be
 * found in the LICENSE.txt file.
 */

  .globl SDL_ConvertPixels
  .p2align 4
  .type SDL_ConvertPixels, %function
#ifndef IMPLIB_EXPORT_SHIMS
  .hidden SDL_ConvertPixels
#endif
SDL_ConvertPixels:
  .cfi_startproc
  .cfi_def_cfa_offset 8  // Return address
  // Intel opt. manual says to
  // "make the fall-through code following a conditional branch be the likely target for a branch with a forward target"
  // to hint static predictor.
  cmpq $0, _libSDL2_so_tramp_table+304(%rip)
  je 2f
1:
  jmp *_libSDL2_so_tramp_table+304(%rip)
2:
  pushq $38
  .cfi_adjust_cfa_offset 8
  call _libSDL2_so_save_regs_and_resolve
  addq $8, %rsp
  .cfi_adjust_cfa_offset -8
  jmp 1b
  .cfi_endproc

/*
 * Copyright 2018-2022 Yury Gribov
 *
 * The MIT License (MIT)
 *
 * Use of this source code is governed by MIT license that can be
 * found in the LICENSE.txt file.
 */

  .globl SDL_ConvertSurface
  .p2align 4
  .type SDL_ConvertSurface, %function
#ifndef IMPLIB_EXPORT_SHIMS
  .hidden SDL_ConvertSurface
#endif
SDL_ConvertSurface:
  .cfi_startproc
  .cfi_def_cfa_offset 8  // Return address
  // Intel opt. manual says to
  // "make the fall-through code following a conditional branch be the likely target for a branch with a forward target"
  // to hint static predictor.
  cmpq $0, _libSDL2_so_tramp_table+312(%rip)
  je 2f
1:
  jmp *_libSDL2_so_tramp_table+312(%rip)
2:
  pushq $39
  .cfi_adjust_cfa_offset 8
  call _libSDL2_so_save_regs_and_resolve
  addq $8, %rsp
  .cfi_adjust_cfa_offset -8
  jmp 1b
  .cfi_endproc

/*
 * Copyright 2018-2022 Yury Gribov
 *
 * The MIT License (MIT)
 *
 * Use of this source code is governed by MIT license that can be
 * found in the LICENSE.txt file.
 */

  .globl SDL_ConvertSurfaceFormat
  .p2align 4
  .type SDL_ConvertSurfaceFormat, %function
#ifndef IMPLIB_EXPORT_SHIMS
  .hidden SDL_ConvertSurfaceFormat
#endif
SDL_ConvertSurfaceFormat:
  .cfi_startproc
  .cfi_def_cfa_offset 8  // Return address
  // Intel opt. manual says to
  // "make the fall-through code following a conditional branch be the likely target for a branch with a forward target"
  // to hint static predictor.
  cmpq $0, _libSDL2_so_tramp_table+320(%rip)
  je 2f
1:
  jmp *_libSDL2_so_tramp_table+320(%rip)
2:
  pushq $40
  .cfi_adjust_cfa_offset 8
  call _libSDL2_so_save_regs_and_resolve
  addq $8, %rsp
  .cfi_adjust_cfa_offset -8
  jmp 1b
  .cfi_endproc

/*
 * Copyright 2018-2022 Yury Gribov
 *
 * The MIT License (MIT)
 *
 * Use of this source code is governed by MIT license that can be
 * found in the LICENSE.txt file.
 */

  .globl SDL_CreateColorCursor
  .p2align 4
  .type SDL_CreateColorCursor, %function
#ifndef IMPLIB_EXPORT_SHIMS
  .hidden SDL_CreateColorCursor
#endif
SDL_CreateColorCursor:
  .cfi_startproc
  .cfi_def_cfa_offset 8  // Return address
  // Intel opt. manual says to
  // "make the fall-through code following a conditional branch be the likely target for a branch with a forward target"
  // to hint static predictor.
  cmpq $0, _libSDL2_so_tramp_table+328(%rip)
  je 2f
1:
  jmp *_libSDL2_so_tramp_table+328(%rip)
2:
  pushq $41
  .cfi_adjust_cfa_offset 8
  call _libSDL2_so_save_regs_and_resolve
  addq $8, %rsp
  .cfi_adjust_cfa_offset -8
  jmp 1b
  .cfi_endproc

/*
 * Copyright 2018-2022 Yury Gribov
 *
 * The MIT License (MIT)
 *
 * Use of this source code is governed by MIT license that can be
 * found in the LICENSE.txt file.
 */

  .globl SDL_CreateCond
  .p2align 4
  .type SDL_CreateCond, %function
#ifndef IMPLIB_EXPORT_SHIMS
  .hidden SDL_CreateCond
#endif
SDL_CreateCond:
  .cfi_startproc
  .cfi_def_cfa_offset 8  // Return address
  // Intel opt. manual says to
  // "make the fall-through code following a conditional branch be the likely target for a branch with a forward target"
  // to hint static predictor.
  cmpq $0, _libSDL2_so_tramp_table+336(%rip)
  je 2f
1:
  jmp *_libSDL2_so_tramp_table+336(%rip)
2:
  pushq $42
  .cfi_adjust_cfa_offset 8
  call _libSDL2_so_save_regs_and_resolve
  addq $8, %rsp
  .cfi_adjust_cfa_offset -8
  jmp 1b
  .cfi_endproc

/*
 * Copyright 2018-2022 Yury Gribov
 *
 * The MIT License (MIT)
 *
 * Use of this source code is governed by MIT license that can be
 * found in the LICENSE.txt file.
 */

  .globl SDL_CreateCursor
  .p2align 4
  .type SDL_CreateCursor, %function
#ifndef IMPLIB_EXPORT_SHIMS
  .hidden SDL_CreateCursor
#endif
SDL_CreateCursor:
  .cfi_startproc
  .cfi_def_cfa_offset 8  // Return address
  // Intel opt. manual says to
  // "make the fall-through code following a conditional branch be the likely target for a branch with a forward target"
  // to hint static predictor.
  cmpq $0, _libSDL2_so_tramp_table+344(%rip)
  je 2f
1:
  jmp *_libSDL2_so_tramp_table+344(%rip)
2:
  pushq $43
  .cfi_adjust_cfa_offset 8
  call _libSDL2_so_save_regs_and_resolve
  addq $8, %rsp
  .cfi_adjust_cfa_offset -8
  jmp 1b
  .cfi_endproc

/*
 * Copyright 2018-2022 Yury Gribov
 *
 * The MIT License (MIT)
 *
 * Use of this source code is governed by MIT license that can be
 * found in the LICENSE.txt file.
 */

  .globl SDL_CreateMutex
  .p2align 4
  .type SDL_CreateMutex, %function
#ifndef IMPLIB_EXPORT_SHIMS
  .hidden SDL_CreateMutex
#endif
SDL_CreateMutex:
  .cfi_startproc
  .cfi_def_cfa_offset 8  // Return address
  // Intel opt. manual says to
  // "make the fall-through code following a conditional branch be the likely target for a branch with a forward target"
  // to hint static predictor.
  cmpq $0, _libSDL2_so_tramp_table+352(%rip)
  je 2f
1:
  jmp *_libSDL2_so_tramp_table+352(%rip)
2:
  pushq $44
  .cfi_adjust_cfa_offset 8
  call _libSDL2_so_save_regs_and_resolve
  addq $8, %rsp
  .cfi_adjust_cfa_offset -8
  jmp 1b
  .cfi_endproc

/*
 * Copyright 2018-2022 Yury Gribov
 *
 * The MIT License (MIT)
 *
 * Use of this source code is governed by MIT license that can be
 * found in the LICENSE.txt file.
 */

  .globl SDL_CreateRGBSurface
  .p2align 4
  .type SDL_CreateRGBSurface, %function
#ifndef IMPLIB_EXPORT_SHIMS
  .hidden SDL_CreateRGBSurface
#endif
SDL_CreateRGBSurface:
  .cfi_startproc
  .cfi_def_cfa_offset 8  // Return address
  // Intel opt. manual says to
  // "make the fall-through code following a conditional branch be the likely target for a branch with a forward target"
  // to hint static predictor.
  cmpq $0, _libSDL2_so_tramp_table+360(%rip)
  je 2f
1:
  jmp *_libSDL2_so_tramp_table+360(%rip)
2:
  pushq $45
  .cfi_adjust_cfa_offset 8
  call _libSDL2_so_save_regs_and_resolve
  addq $8, %rsp
  .cfi_adjust_cfa_offset -8
  jmp 1b
  .cfi_endproc

/*
 * Copyright 2018-2022 Yury Gribov
 *
 * The MIT License (MIT)
 *
 * Use of this source code is governed by MIT license that can be
 * found in the LICENSE.txt file.
 */

  .globl SDL_CreateRGBSurfaceFrom
  .p2align 4
  .type SDL_CreateRGBSurfaceFrom, %function
#ifndef IMPLIB_EXPORT_SHIMS
  .hidden SDL_CreateRGBSurfaceFrom
#endif
SDL_CreateRGBSurfaceFrom:
  .cfi_startproc
  .cfi_def_cfa_offset 8  // Return address
  // Intel opt. manual says to
  // "make the fall-through code following a conditional branch be the likely target for a branch with a forward target"
  // to hint static predictor.
  cmpq $0, _libSDL2_so_tramp_table+368(%rip)
  je 2f
1:
  jmp *_libSDL2_so_tramp_table+368(%rip)
2:
  pushq $46
  .cfi_adjust_cfa_offset 8
  call _libSDL2_so_save_regs_and_resolve
  addq $8, %rsp
  .cfi_adjust_cfa_offset -8
  jmp 1b
  .cfi_endproc

/*
 * Copyright 2018-2022 Yury Gribov
 *
 * The MIT License (MIT)
 *
 * Use of this source code is governed by MIT license that can be
 * found in the LICENSE.txt file.
 */

  .globl SDL_CreateRGBSurfaceWithFormat
  .p2align 4
  .type SDL_CreateRGBSurfaceWithFormat, %function
#ifndef IMPLIB_EXPORT_SHIMS
  .hidden SDL_CreateRGBSurfaceWithFormat
#endif
SDL_CreateRGBSurfaceWithFormat:
  .cfi_startproc
  .cfi_def_cfa_offset 8  // Return address
  // Intel opt. manual says to
  // "make the fall-through code following a conditional branch be the likely target for a branch with a forward target"
  // to hint static predictor.
  cmpq $0, _libSDL2_so_tramp_table+376(%rip)
  je 2f
1:
  jmp *_libSDL2_so_tramp_table+376(%rip)
2:
  pushq $47
  .cfi_adjust_cfa_offset 8
  call _libSDL2_so_save_regs_and_resolve
  addq $8, %rsp
  .cfi_adjust_cfa_offset -8
  jmp 1b
  .cfi_endproc

/*
 * Copyright 2018-2022 Yury Gribov
 *
 * The MIT License (MIT)
 *
 * Use of this source code is governed by MIT license that can be
 * found in the LICENSE.txt file.
 */

  .globl SDL_CreateRGBSurfaceWithFormatFrom
  .p2align 4
  .type SDL_CreateRGBSurfaceWithFormatFrom, %function
#ifndef IMPLIB_EXPORT_SHIMS
  .hidden SDL_CreateRGBSurfaceWithFormatFrom
#endif
SDL_CreateRGBSurfaceWithFormatFrom:
  .cfi_startproc
  .cfi_def_cfa_offset 8  // Return address
  // Intel opt. manual says to
  // "make the fall-through code following a conditional branch be the likely target for a branch with a forward target"
  // to hint static predictor.
  cmpq $0, _libSDL2_so_tramp_table+384(%rip)
  je 2f
1:
  jmp *_libSDL2_so_tramp_table+384(%rip)
2:
  pushq $48
  .cfi_adjust_cfa_offset 8
  call _libSDL2_so_save_regs_and_resolve
  addq $8, %rsp
  .cfi_adjust_cfa_offset -8
  jmp 1b
  .cfi_endproc

/*
 * Copyright 2018-2022 Yury Gribov
 *
 * The MIT License (MIT)
 *
 * Use of this source code is governed by MIT license that can be
 * found in the LICENSE.txt file.
 */

  .globl SDL_CreateRenderer
  .p2align 4
  .type SDL_CreateRenderer, %function
#ifndef IMPLIB_EXPORT_SHIMS
  .hidden SDL_CreateRenderer
#endif
SDL_CreateRenderer:
  .cfi_startproc
  .cfi_def_cfa_offset 8  // Return address
  // Intel opt. manual says to
  // "make the fall-through code following a conditional branch be the likely target for a branch with a forward target"
  // to hint static predictor.
  cmpq $0, _libSDL2_so_tramp_table+392(%rip)
  je 2f
1:
  jmp *_libSDL2_so_tramp_table+392(%rip)
2:
  pushq $49
  .cfi_adjust_cfa_offset 8
  call _libSDL2_so_save_regs_and_resolve
  addq $8, %rsp
  .cfi_adjust_cfa_offset -8
  jmp 1b
  .cfi_endproc

/*
 * Copyright 2018-2022 Yury Gribov
 *
 * The MIT License (MIT)
 *
 * Use of this source code is governed by MIT license that can be
 * found in the LICENSE.txt file.
 */

  .globl SDL_CreateSemaphore
  .p2align 4
  .type SDL_CreateSemaphore, %function
#ifndef IMPLIB_EXPORT_SHIMS
  .hidden SDL_CreateSemaphore
#endif
SDL_CreateSemaphore:
  .cfi_startproc
  .cfi_def_cfa_offset 8  // Return address
  // Intel opt. manual says to
  // "make the fall-through code following a conditional branch be the likely target for a branch with a forward target"
  // to hint static predictor.
  cmpq $0, _libSDL2_so_tramp_table+400(%rip)
  je 2f
1:
  jmp *_libSDL2_so_tramp_table+400(%rip)
2:
  pushq $50
  .cfi_adjust_cfa_offset 8
  call _libSDL2_so_save_regs_and_resolve
  addq $8, %rsp
  .cfi_adjust_cfa_offset -8
  jmp 1b
  .cfi_endproc

/*
 * Copyright 2018-2022 Yury Gribov
 *
 * The MIT License (MIT)
 *
 * Use of this source code is governed by MIT license that can be
 * found in the LICENSE.txt file.
 */

  .globl SDL_CreateShapedWindow
  .p2align 4
  .type SDL_CreateShapedWindow, %function
#ifndef IMPLIB_EXPORT_SHIMS
  .hidden SDL_CreateShapedWindow
#endif
SDL_CreateShapedWindow:
  .cfi_startproc
  .cfi_def_cfa_offset 8  // Return address
  // Intel opt. manual says to
  // "make the fall-through code following a conditional branch be the likely target for a branch with a forward target"
  // to hint static predictor.
  cmpq $0, _libSDL2_so_tramp_table+408(%rip)
  je 2f
1:
  jmp *_libSDL2_so_tramp_table+408(%rip)
2:
  pushq $51
  .cfi_adjust_cfa_offset 8
  call _libSDL2_so_save_regs_and_resolve
  addq $8, %rsp
  .cfi_adjust_cfa_offset -8
  jmp 1b
  .cfi_endproc

/*
 * Copyright 2018-2022 Yury Gribov
 *
 * The MIT License (MIT)
 *
 * Use of this source code is governed by MIT license that can be
 * found in the LICENSE.txt file.
 */

  .globl SDL_CreateSoftwareRenderer
  .p2align 4
  .type SDL_CreateSoftwareRenderer, %function
#ifndef IMPLIB_EXPORT_SHIMS
  .hidden SDL_CreateSoftwareRenderer
#endif
SDL_CreateSoftwareRenderer:
  .cfi_startproc
  .cfi_def_cfa_offset 8  // Return address
  // Intel opt. manual says to
  // "make the fall-through code following a conditional branch be the likely target for a branch with a forward target"
  // to hint static predictor.
  cmpq $0, _libSDL2_so_tramp_table+416(%rip)
  je 2f
1:
  jmp *_libSDL2_so_tramp_table+416(%rip)
2:
  pushq $52
  .cfi_adjust_cfa_offset 8
  call _libSDL2_so_save_regs_and_resolve
  addq $8, %rsp
  .cfi_adjust_cfa_offset -8
  jmp 1b
  .cfi_endproc

/*
 * Copyright 2018-2022 Yury Gribov
 *
 * The MIT License (MIT)
 *
 * Use of this source code is governed by MIT license that can be
 * found in the LICENSE.txt file.
 */

  .globl SDL_CreateSystemCursor
  .p2align 4
  .type SDL_CreateSystemCursor, %function
#ifndef IMPLIB_EXPORT_SHIMS
  .hidden SDL_CreateSystemCursor
#endif
SDL_CreateSystemCursor:
  .cfi_startproc
  .cfi_def_cfa_offset 8  // Return address
  // Intel opt. manual says to
  // "make the fall-through code following a conditional branch be the likely target for a branch with a forward target"
  // to hint static predictor.
  cmpq $0, _libSDL2_so_tramp_table+424(%rip)
  je 2f
1:
  jmp *_libSDL2_so_tramp_table+424(%rip)
2:
  pushq $53
  .cfi_adjust_cfa_offset 8
  call _libSDL2_so_save_regs_and_resolve
  addq $8, %rsp
  .cfi_adjust_cfa_offset -8
  jmp 1b
  .cfi_endproc

/*
 * Copyright 2018-2022 Yury Gribov
 *
 * The MIT License (MIT)
 *
 * Use of this source code is governed by MIT license that can be
 * found in the LICENSE.txt file.
 */

  .globl SDL_CreateTexture
  .p2align 4
  .type SDL_CreateTexture, %function
#ifndef IMPLIB_EXPORT_SHIMS
  .hidden SDL_CreateTexture
#endif
SDL_CreateTexture:
  .cfi_startproc
  .cfi_def_cfa_offset 8  // Return address
  // Intel opt. manual says to
  // "make the fall-through code following a conditional branch be the likely target for a branch with a forward target"
  // to hint static predictor.
  cmpq $0, _libSDL2_so_tramp_table+432(%rip)
  je 2f
1:
  jmp *_libSDL2_so_tramp_table+432(%rip)
2:
  pushq $54
  .cfi_adjust_cfa_offset 8
  call _libSDL2_so_save_regs_and_resolve
  addq $8, %rsp
  .cfi_adjust_cfa_offset -8
  jmp 1b
  .cfi_endproc

/*
 * Copyright 2018-2022 Yury Gribov
 *
 * The MIT License (MIT)
 *
 * Use of this source code is governed by MIT license that can be
 * found in the LICENSE.txt file.
 */

  .globl SDL_CreateTextureFromSurface
  .p2align 4
  .type SDL_CreateTextureFromSurface, %function
#ifndef IMPLIB_EXPORT_SHIMS
  .hidden SDL_CreateTextureFromSurface
#endif
SDL_CreateTextureFromSurface:
  .cfi_startproc
  .cfi_def_cfa_offset 8  // Return address
  // Intel opt. manual says to
  // "make the fall-through code following a conditional branch be the likely target for a branch with a forward target"
  // to hint static predictor.
  cmpq $0, _libSDL2_so_tramp_table+440(%rip)
  je 2f
1:
  jmp *_libSDL2_so_tramp_table+440(%rip)
2:
  pushq $55
  .cfi_adjust_cfa_offset 8
  call _libSDL2_so_save_regs_and_resolve
  addq $8, %rsp
  .cfi_adjust_cfa_offset -8
  jmp 1b
  .cfi_endproc

/*
 * Copyright 2018-2022 Yury Gribov
 *
 * The MIT License (MIT)
 *
 * Use of this source code is governed by MIT license that can be
 * found in the LICENSE.txt file.
 */

  .globl SDL_CreateThread
  .p2align 4
  .type SDL_CreateThread, %function
#ifndef IMPLIB_EXPORT_SHIMS
  .hidden SDL_CreateThread
#endif
SDL_CreateThread:
  .cfi_startproc
  .cfi_def_cfa_offset 8  // Return address
  // Intel opt. manual says to
  // "make the fall-through code following a conditional branch be the likely target for a branch with a forward target"
  // to hint static predictor.
  cmpq $0, _libSDL2_so_tramp_table+448(%rip)
  je 2f
1:
  jmp *_libSDL2_so_tramp_table+448(%rip)
2:
  pushq $56
  .cfi_adjust_cfa_offset 8
  call _libSDL2_so_save_regs_and_resolve
  addq $8, %rsp
  .cfi_adjust_cfa_offset -8
  jmp 1b
  .cfi_endproc

/*
 * Copyright 2018-2022 Yury Gribov
 *
 * The MIT License (MIT)
 *
 * Use of this source code is governed by MIT license that can be
 * found in the LICENSE.txt file.
 */

  .globl SDL_CreateThreadWithStackSize
  .p2align 4
  .type SDL_CreateThreadWithStackSize, %function
#ifndef IMPLIB_EXPORT_SHIMS
  .hidden SDL_CreateThreadWithStackSize
#endif
SDL_CreateThreadWithStackSize:
  .cfi_startproc
  .cfi_def_cfa_offset 8  // Return address
  // Intel opt. manual says to
  // "make the fall-through code following a conditional branch be the likely target for a branch with a forward target"
  // to hint static predictor.
  cmpq $0, _libSDL2_so_tramp_table+456(%rip)
  je 2f
1:
  jmp *_libSDL2_so_tramp_table+456(%rip)
2:
  pushq $57
  .cfi_adjust_cfa_offset 8
  call _libSDL2_so_save_regs_and_resolve
  addq $8, %rsp
  .cfi_adjust_cfa_offset -8
  jmp 1b
  .cfi_endproc

/*
 * Copyright 2018-2022 Yury Gribov
 *
 * The MIT License (MIT)
 *
 * Use of this source code is governed by MIT license that can be
 * found in the LICENSE.txt file.
 */

  .globl SDL_CreateWindow
  .p2align 4
  .type SDL_CreateWindow, %function
#ifndef IMPLIB_EXPORT_SHIMS
  .hidden SDL_CreateWindow
#endif
SDL_CreateWindow:
  .cfi_startproc
  .cfi_def_cfa_offset 8  // Return address
  // Intel opt. manual says to
  // "make the fall-through code following a conditional branch be the likely target for a branch with a forward target"
  // to hint static predictor.
  cmpq $0, _libSDL2_so_tramp_table+464(%rip)
  je 2f
1:
  jmp *_libSDL2_so_tramp_table+464(%rip)
2:
  pushq $58
  .cfi_adjust_cfa_offset 8
  call _libSDL2_so_save_regs_and_resolve
  addq $8, %rsp
  .cfi_adjust_cfa_offset -8
  jmp 1b
  .cfi_endproc

/*
 * Copyright 2018-2022 Yury Gribov
 *
 * The MIT License (MIT)
 *
 * Use of this source code is governed by MIT license that can be
 * found in the LICENSE.txt file.
 */

  .globl SDL_CreateWindowAndRenderer
  .p2align 4
  .type SDL_CreateWindowAndRenderer, %function
#ifndef IMPLIB_EXPORT_SHIMS
  .hidden SDL_CreateWindowAndRenderer
#endif
SDL_CreateWindowAndRenderer:
  .cfi_startproc
  .cfi_def_cfa_offset 8  // Return address
  // Intel opt. manual says to
  // "make the fall-through code following a conditional branch be the likely target for a branch with a forward target"
  // to hint static predictor.
  cmpq $0, _libSDL2_so_tramp_table+472(%rip)
  je 2f
1:
  jmp *_libSDL2_so_tramp_table+472(%rip)
2:
  pushq $59
  .cfi_adjust_cfa_offset 8
  call _libSDL2_so_save_regs_and_resolve
  addq $8, %rsp
  .cfi_adjust_cfa_offset -8
  jmp 1b
  .cfi_endproc

/*
 * Copyright 2018-2022 Yury Gribov
 *
 * The MIT License (MIT)
 *
 * Use of this source code is governed by MIT license that can be
 * found in the LICENSE.txt file.
 */

  .globl SDL_CreateWindowFrom
  .p2align 4
  .type SDL_CreateWindowFrom, %function
#ifndef IMPLIB_EXPORT_SHIMS
  .hidden SDL_CreateWindowFrom
#endif
SDL_CreateWindowFrom:
  .cfi_startproc
  .cfi_def_cfa_offset 8  // Return address
  // Intel opt. manual says to
  // "make the fall-through code following a conditional branch be the likely target for a branch with a forward target"
  // to hint static predictor.
  cmpq $0, _libSDL2_so_tramp_table+480(%rip)
  je 2f
1:
  jmp *_libSDL2_so_tramp_table+480(%rip)
2:
  pushq $60
  .cfi_adjust_cfa_offset 8
  call _libSDL2_so_save_regs_and_resolve
  addq $8, %rsp
  .cfi_adjust_cfa_offset -8
  jmp 1b
  .cfi_endproc

/*
 * Copyright 2018-2022 Yury Gribov
 *
 * The MIT License (MIT)
 *
 * Use of this source code is governed by MIT license that can be
 * found in the LICENSE.txt file.
 */

  .globl SDL_DYNAPI_entry
  .p2align 4
  .type SDL_DYNAPI_entry, %function
#ifndef IMPLIB_EXPORT_SHIMS
  .hidden SDL_DYNAPI_entry
#endif
SDL_DYNAPI_entry:
  .cfi_startproc
  .cfi_def_cfa_offset 8  // Return address
  // Intel opt. manual says to
  // "make the fall-through code following a conditional branch be the likely target for a branch with a forward target"
  // to hint static predictor.
  cmpq $0, _libSDL2_so_tramp_table+488(%rip)
  je 2f
1:
  jmp *_libSDL2_so_tramp_table+488(%rip)
2:
  pushq $61
  .cfi_adjust_cfa_offset 8
  call _libSDL2_so_save_regs_and_resolve
  addq $8, %rsp
  .cfi_adjust_cfa_offset -8
  jmp 1b
  .cfi_endproc

/*
 * Copyright 2018-2022 Yury Gribov
 *
 * The MIT License (MIT)
 *
 * Use of this source code is governed by MIT license that can be
 * found in the LICENSE.txt file.
 */

  .globl SDL_DelEventWatch
  .p2align 4
  .type SDL_DelEventWatch, %function
#ifndef IMPLIB_EXPORT_SHIMS
  .hidden SDL_DelEventWatch
#endif
SDL_DelEventWatch:
  .cfi_startproc
  .cfi_def_cfa_offset 8  // Return address
  // Intel opt. manual says to
  // "make the fall-through code following a conditional branch be the likely target for a branch with a forward target"
  // to hint static predictor.
  cmpq $0, _libSDL2_so_tramp_table+496(%rip)
  je 2f
1:
  jmp *_libSDL2_so_tramp_table+496(%rip)
2:
  pushq $62
  .cfi_adjust_cfa_offset 8
  call _libSDL2_so_save_regs_and_resolve
  addq $8, %rsp
  .cfi_adjust_cfa_offset -8
  jmp 1b
  .cfi_endproc

/*
 * Copyright 2018-2022 Yury Gribov
 *
 * The MIT License (MIT)
 *
 * Use of this source code is governed by MIT license that can be
 * found in the LICENSE.txt file.
 */

  .globl SDL_DelHintCallback
  .p2align 4
  .type SDL_DelHintCallback, %function
#ifndef IMPLIB_EXPORT_SHIMS
  .hidden SDL_DelHintCallback
#endif
SDL_DelHintCallback:
  .cfi_startproc
  .cfi_def_cfa_offset 8  // Return address
  // Intel opt. manual says to
  // "make the fall-through code following a conditional branch be the likely target for a branch with a forward target"
  // to hint static predictor.
  cmpq $0, _libSDL2_so_tramp_table+504(%rip)
  je 2f
1:
  jmp *_libSDL2_so_tramp_table+504(%rip)
2:
  pushq $63
  .cfi_adjust_cfa_offset 8
  call _libSDL2_so_save_regs_and_resolve
  addq $8, %rsp
  .cfi_adjust_cfa_offset -8
  jmp 1b
  .cfi_endproc

/*
 * Copyright 2018-2022 Yury Gribov
 *
 * The MIT License (MIT)
 *
 * Use of this source code is governed by MIT license that can be
 * found in the LICENSE.txt file.
 */

  .globl SDL_Delay
  .p2align 4
  .type SDL_Delay, %function
#ifndef IMPLIB_EXPORT_SHIMS
  .hidden SDL_Delay
#endif
SDL_Delay:
  .cfi_startproc
  .cfi_def_cfa_offset 8  // Return address
  // Intel opt. manual says to
  // "make the fall-through code following a conditional branch be the likely target for a branch with a forward target"
  // to hint static predictor.
  cmpq $0, _libSDL2_so_tramp_table+512(%rip)
  je 2f
1:
  jmp *_libSDL2_so_tramp_table+512(%rip)
2:
  pushq $64
  .cfi_adjust_cfa_offset 8
  call _libSDL2_so_save_regs_and_resolve
  addq $8, %rsp
  .cfi_adjust_cfa_offset -8
  jmp 1b
  .cfi_endproc

/*
 * Copyright 2018-2022 Yury Gribov
 *
 * The MIT License (MIT)
 *
 * Use of this source code is governed by MIT license that can be
 * found in the LICENSE.txt file.
 */

  .globl SDL_DequeueAudio
  .p2align 4
  .type SDL_DequeueAudio, %function
#ifndef IMPLIB_EXPORT_SHIMS
  .hidden SDL_DequeueAudio
#endif
SDL_DequeueAudio:
  .cfi_startproc
  .cfi_def_cfa_offset 8  // Return address
  // Intel opt. manual says to
  // "make the fall-through code following a conditional branch be the likely target for a branch with a forward target"
  // to hint static predictor.
  cmpq $0, _libSDL2_so_tramp_table+520(%rip)
  je 2f
1:
  jmp *_libSDL2_so_tramp_table+520(%rip)
2:
  pushq $65
  .cfi_adjust_cfa_offset 8
  call _libSDL2_so_save_regs_and_resolve
  addq $8, %rsp
  .cfi_adjust_cfa_offset -8
  jmp 1b
  .cfi_endproc

/*
 * Copyright 2018-2022 Yury Gribov
 *
 * The MIT License (MIT)
 *
 * Use of this source code is governed by MIT license that can be
 * found in the LICENSE.txt file.
 */

  .globl SDL_DestroyCond
  .p2align 4
  .type SDL_DestroyCond, %function
#ifndef IMPLIB_EXPORT_SHIMS
  .hidden SDL_DestroyCond
#endif
SDL_DestroyCond:
  .cfi_startproc
  .cfi_def_cfa_offset 8  // Return address
  // Intel opt. manual says to
  // "make the fall-through code following a conditional branch be the likely target for a branch with a forward target"
  // to hint static predictor.
  cmpq $0, _libSDL2_so_tramp_table+528(%rip)
  je 2f
1:
  jmp *_libSDL2_so_tramp_table+528(%rip)
2:
  pushq $66
  .cfi_adjust_cfa_offset 8
  call _libSDL2_so_save_regs_and_resolve
  addq $8, %rsp
  .cfi_adjust_cfa_offset -8
  jmp 1b
  .cfi_endproc

/*
 * Copyright 2018-2022 Yury Gribov
 *
 * The MIT License (MIT)
 *
 * Use of this source code is governed by MIT license that can be
 * found in the LICENSE.txt file.
 */

  .globl SDL_DestroyMutex
  .p2align 4
  .type SDL_DestroyMutex, %function
#ifndef IMPLIB_EXPORT_SHIMS
  .hidden SDL_DestroyMutex
#endif
SDL_DestroyMutex:
  .cfi_startproc
  .cfi_def_cfa_offset 8  // Return address
  // Intel opt. manual says to
  // "make the fall-through code following a conditional branch be the likely target for a branch with a forward target"
  // to hint static predictor.
  cmpq $0, _libSDL2_so_tramp_table+536(%rip)
  je 2f
1:
  jmp *_libSDL2_so_tramp_table+536(%rip)
2:
  pushq $67
  .cfi_adjust_cfa_offset 8
  call _libSDL2_so_save_regs_and_resolve
  addq $8, %rsp
  .cfi_adjust_cfa_offset -8
  jmp 1b
  .cfi_endproc

/*
 * Copyright 2018-2022 Yury Gribov
 *
 * The MIT License (MIT)
 *
 * Use of this source code is governed by MIT license that can be
 * found in the LICENSE.txt file.
 */

  .globl SDL_DestroyRenderer
  .p2align 4
  .type SDL_DestroyRenderer, %function
#ifndef IMPLIB_EXPORT_SHIMS
  .hidden SDL_DestroyRenderer
#endif
SDL_DestroyRenderer:
  .cfi_startproc
  .cfi_def_cfa_offset 8  // Return address
  // Intel opt. manual says to
  // "make the fall-through code following a conditional branch be the likely target for a branch with a forward target"
  // to hint static predictor.
  cmpq $0, _libSDL2_so_tramp_table+544(%rip)
  je 2f
1:
  jmp *_libSDL2_so_tramp_table+544(%rip)
2:
  pushq $68
  .cfi_adjust_cfa_offset 8
  call _libSDL2_so_save_regs_and_resolve
  addq $8, %rsp
  .cfi_adjust_cfa_offset -8
  jmp 1b
  .cfi_endproc

/*
 * Copyright 2018-2022 Yury Gribov
 *
 * The MIT License (MIT)
 *
 * Use of this source code is governed by MIT license that can be
 * found in the LICENSE.txt file.
 */

  .globl SDL_DestroySemaphore
  .p2align 4
  .type SDL_DestroySemaphore, %function
#ifndef IMPLIB_EXPORT_SHIMS
  .hidden SDL_DestroySemaphore
#endif
SDL_DestroySemaphore:
  .cfi_startproc
  .cfi_def_cfa_offset 8  // Return address
  // Intel opt. manual says to
  // "make the fall-through code following a conditional branch be the likely target for a branch with a forward target"
  // to hint static predictor.
  cmpq $0, _libSDL2_so_tramp_table+552(%rip)
  je 2f
1:
  jmp *_libSDL2_so_tramp_table+552(%rip)
2:
  pushq $69
  .cfi_adjust_cfa_offset 8
  call _libSDL2_so_save_regs_and_resolve
  addq $8, %rsp
  .cfi_adjust_cfa_offset -8
  jmp 1b
  .cfi_endproc

/*
 * Copyright 2018-2022 Yury Gribov
 *
 * The MIT License (MIT)
 *
 * Use of this source code is governed by MIT license that can be
 * found in the LICENSE.txt file.
 */

  .globl SDL_DestroyTexture
  .p2align 4
  .type SDL_DestroyTexture, %function
#ifndef IMPLIB_EXPORT_SHIMS
  .hidden SDL_DestroyTexture
#endif
SDL_DestroyTexture:
  .cfi_startproc
  .cfi_def_cfa_offset 8  // Return address
  // Intel opt. manual says to
  // "make the fall-through code following a conditional branch be the likely target for a branch with a forward target"
  // to hint static predictor.
  cmpq $0, _libSDL2_so_tramp_table+560(%rip)
  je 2f
1:
  jmp *_libSDL2_so_tramp_table+560(%rip)
2:
  pushq $70
  .cfi_adjust_cfa_offset 8
  call _libSDL2_so_save_regs_and_resolve
  addq $8, %rsp
  .cfi_adjust_cfa_offset -8
  jmp 1b
  .cfi_endproc

/*
 * Copyright 2018-2022 Yury Gribov
 *
 * The MIT License (MIT)
 *
 * Use of this source code is governed by MIT license that can be
 * found in the LICENSE.txt file.
 */

  .globl SDL_DestroyWindow
  .p2align 4
  .type SDL_DestroyWindow, %function
#ifndef IMPLIB_EXPORT_SHIMS
  .hidden SDL_DestroyWindow
#endif
SDL_DestroyWindow:
  .cfi_startproc
  .cfi_def_cfa_offset 8  // Return address
  // Intel opt. manual says to
  // "make the fall-through code following a conditional branch be the likely target for a branch with a forward target"
  // to hint static predictor.
  cmpq $0, _libSDL2_so_tramp_table+568(%rip)
  je 2f
1:
  jmp *_libSDL2_so_tramp_table+568(%rip)
2:
  pushq $71
  .cfi_adjust_cfa_offset 8
  call _libSDL2_so_save_regs_and_resolve
  addq $8, %rsp
  .cfi_adjust_cfa_offset -8
  jmp 1b
  .cfi_endproc

/*
 * Copyright 2018-2022 Yury Gribov
 *
 * The MIT License (MIT)
 *
 * Use of this source code is governed by MIT license that can be
 * found in the LICENSE.txt file.
 */

  .globl SDL_DestroyWindowSurface
  .p2align 4
  .type SDL_DestroyWindowSurface, %function
#ifndef IMPLIB_EXPORT_SHIMS
  .hidden SDL_DestroyWindowSurface
#endif
SDL_DestroyWindowSurface:
  .cfi_startproc
  .cfi_def_cfa_offset 8  // Return address
  // Intel opt. manual says to
  // "make the fall-through code following a conditional branch be the likely target for a branch with a forward target"
  // to hint static predictor.
  cmpq $0, _libSDL2_so_tramp_table+576(%rip)
  je 2f
1:
  jmp *_libSDL2_so_tramp_table+576(%rip)
2:
  pushq $72
  .cfi_adjust_cfa_offset 8
  call _libSDL2_so_save_regs_and_resolve
  addq $8, %rsp
  .cfi_adjust_cfa_offset -8
  jmp 1b
  .cfi_endproc

/*
 * Copyright 2018-2022 Yury Gribov
 *
 * The MIT License (MIT)
 *
 * Use of this source code is governed by MIT license that can be
 * found in the LICENSE.txt file.
 */

  .globl SDL_DetachThread
  .p2align 4
  .type SDL_DetachThread, %function
#ifndef IMPLIB_EXPORT_SHIMS
  .hidden SDL_DetachThread
#endif
SDL_DetachThread:
  .cfi_startproc
  .cfi_def_cfa_offset 8  // Return address
  // Intel opt. manual says to
  // "make the fall-through code following a conditional branch be the likely target for a branch with a forward target"
  // to hint static predictor.
  cmpq $0, _libSDL2_so_tramp_table+584(%rip)
  je 2f
1:
  jmp *_libSDL2_so_tramp_table+584(%rip)
2:
  pushq $73
  .cfi_adjust_cfa_offset 8
  call _libSDL2_so_save_regs_and_resolve
  addq $8, %rsp
  .cfi_adjust_cfa_offset -8
  jmp 1b
  .cfi_endproc

/*
 * Copyright 2018-2022 Yury Gribov
 *
 * The MIT License (MIT)
 *
 * Use of this source code is governed by MIT license that can be
 * found in the LICENSE.txt file.
 */

  .globl SDL_DisableScreenSaver
  .p2align 4
  .type SDL_DisableScreenSaver, %function
#ifndef IMPLIB_EXPORT_SHIMS
  .hidden SDL_DisableScreenSaver
#endif
SDL_DisableScreenSaver:
  .cfi_startproc
  .cfi_def_cfa_offset 8  // Return address
  // Intel opt. manual says to
  // "make the fall-through code following a conditional branch be the likely target for a branch with a forward target"
  // to hint static predictor.
  cmpq $0, _libSDL2_so_tramp_table+592(%rip)
  je 2f
1:
  jmp *_libSDL2_so_tramp_table+592(%rip)
2:
  pushq $74
  .cfi_adjust_cfa_offset 8
  call _libSDL2_so_save_regs_and_resolve
  addq $8, %rsp
  .cfi_adjust_cfa_offset -8
  jmp 1b
  .cfi_endproc

/*
 * Copyright 2018-2022 Yury Gribov
 *
 * The MIT License (MIT)
 *
 * Use of this source code is governed by MIT license that can be
 * found in the LICENSE.txt file.
 */

  .globl SDL_DuplicateSurface
  .p2align 4
  .type SDL_DuplicateSurface, %function
#ifndef IMPLIB_EXPORT_SHIMS
  .hidden SDL_DuplicateSurface
#endif
SDL_DuplicateSurface:
  .cfi_startproc
  .cfi_def_cfa_offset 8  // Return address
  // Intel opt. manual says to
  // "make the fall-through code following a conditional branch be the likely target for a branch with a forward target"
  // to hint static predictor.
  cmpq $0, _libSDL2_so_tramp_table+600(%rip)
  je 2f
1:
  jmp *_libSDL2_so_tramp_table+600(%rip)
2:
  pushq $75
  .cfi_adjust_cfa_offset 8
  call _libSDL2_so_save_regs_and_resolve
  addq $8, %rsp
  .cfi_adjust_cfa_offset -8
  jmp 1b
  .cfi_endproc

/*
 * Copyright 2018-2022 Yury Gribov
 *
 * The MIT License (MIT)
 *
 * Use of this source code is governed by MIT license that can be
 * found in the LICENSE.txt file.
 */

  .globl SDL_EnableScreenSaver
  .p2align 4
  .type SDL_EnableScreenSaver, %function
#ifndef IMPLIB_EXPORT_SHIMS
  .hidden SDL_EnableScreenSaver
#endif
SDL_EnableScreenSaver:
  .cfi_startproc
  .cfi_def_cfa_offset 8  // Return address
  // Intel opt. manual says to
  // "make the fall-through code following a conditional branch be the likely target for a branch with a forward target"
  // to hint static predictor.
  cmpq $0, _libSDL2_so_tramp_table+608(%rip)
  je 2f
1:
  jmp *_libSDL2_so_tramp_table+608(%rip)
2:
  pushq $76
  .cfi_adjust_cfa_offset 8
  call _libSDL2_so_save_regs_and_resolve
  addq $8, %rsp
  .cfi_adjust_cfa_offset -8
  jmp 1b
  .cfi_endproc

/*
 * Copyright 2018-2022 Yury Gribov
 *
 * The MIT License (MIT)
 *
 * Use of this source code is governed by MIT license that can be
 * found in the LICENSE.txt file.
 */

  .globl SDL_EncloseFPoints
  .p2align 4
  .type SDL_EncloseFPoints, %function
#ifndef IMPLIB_EXPORT_SHIMS
  .hidden SDL_EncloseFPoints
#endif
SDL_EncloseFPoints:
  .cfi_startproc
  .cfi_def_cfa_offset 8  // Return address
  // Intel opt. manual says to
  // "make the fall-through code following a conditional branch be the likely target for a branch with a forward target"
  // to hint static predictor.
  cmpq $0, _libSDL2_so_tramp_table+616(%rip)
  je 2f
1:
  jmp *_libSDL2_so_tramp_table+616(%rip)
2:
  pushq $77
  .cfi_adjust_cfa_offset 8
  call _libSDL2_so_save_regs_and_resolve
  addq $8, %rsp
  .cfi_adjust_cfa_offset -8
  jmp 1b
  .cfi_endproc

/*
 * Copyright 2018-2022 Yury Gribov
 *
 * The MIT License (MIT)
 *
 * Use of this source code is governed by MIT license that can be
 * found in the LICENSE.txt file.
 */

  .globl SDL_EnclosePoints
  .p2align 4
  .type SDL_EnclosePoints, %function
#ifndef IMPLIB_EXPORT_SHIMS
  .hidden SDL_EnclosePoints
#endif
SDL_EnclosePoints:
  .cfi_startproc
  .cfi_def_cfa_offset 8  // Return address
  // Intel opt. manual says to
  // "make the fall-through code following a conditional branch be the likely target for a branch with a forward target"
  // to hint static predictor.
  cmpq $0, _libSDL2_so_tramp_table+624(%rip)
  je 2f
1:
  jmp *_libSDL2_so_tramp_table+624(%rip)
2:
  pushq $78
  .cfi_adjust_cfa_offset 8
  call _libSDL2_so_save_regs_and_resolve
  addq $8, %rsp
  .cfi_adjust_cfa_offset -8
  jmp 1b
  .cfi_endproc

/*
 * Copyright 2018-2022 Yury Gribov
 *
 * The MIT License (MIT)
 *
 * Use of this source code is governed by MIT license that can be
 * found in the LICENSE.txt file.
 */

  .globl SDL_Error
  .p2align 4
  .type SDL_Error, %function
#ifndef IMPLIB_EXPORT_SHIMS
  .hidden SDL_Error
#endif
SDL_Error:
  .cfi_startproc
  .cfi_def_cfa_offset 8  // Return address
  // Intel opt. manual says to
  // "make the fall-through code following a conditional branch be the likely target for a branch with a forward target"
  // to hint static predictor.
  cmpq $0, _libSDL2_so_tramp_table+632(%rip)
  je 2f
1:
  jmp *_libSDL2_so_tramp_table+632(%rip)
2:
  pushq $79
  .cfi_adjust_cfa_offset 8
  call _libSDL2_so_save_regs_and_resolve
  addq $8, %rsp
  .cfi_adjust_cfa_offset -8
  jmp 1b
  .cfi_endproc

/*
 * Copyright 2018-2022 Yury Gribov
 *
 * The MIT License (MIT)
 *
 * Use of this source code is governed by MIT license that can be
 * found in the LICENSE.txt file.
 */

  .globl SDL_EventState
  .p2align 4
  .type SDL_EventState, %function
#ifndef IMPLIB_EXPORT_SHIMS
  .hidden SDL_EventState
#endif
SDL_EventState:
  .cfi_startproc
  .cfi_def_cfa_offset 8  // Return address
  // Intel opt. manual says to
  // "make the fall-through code following a conditional branch be the likely target for a branch with a forward target"
  // to hint static predictor.
  cmpq $0, _libSDL2_so_tramp_table+640(%rip)
  je 2f
1:
  jmp *_libSDL2_so_tramp_table+640(%rip)
2:
  pushq $80
  .cfi_adjust_cfa_offset 8
  call _libSDL2_so_save_regs_and_resolve
  addq $8, %rsp
  .cfi_adjust_cfa_offset -8
  jmp 1b
  .cfi_endproc

/*
 * Copyright 2018-2022 Yury Gribov
 *
 * The MIT License (MIT)
 *
 * Use of this source code is governed by MIT license that can be
 * found in the LICENSE.txt file.
 */

  .globl SDL_FillRect
  .p2align 4
  .type SDL_FillRect, %function
#ifndef IMPLIB_EXPORT_SHIMS
  .hidden SDL_FillRect
#endif
SDL_FillRect:
  .cfi_startproc
  .cfi_def_cfa_offset 8  // Return address
  // Intel opt. manual says to
  // "make the fall-through code following a conditional branch be the likely target for a branch with a forward target"
  // to hint static predictor.
  cmpq $0, _libSDL2_so_tramp_table+648(%rip)
  je 2f
1:
  jmp *_libSDL2_so_tramp_table+648(%rip)
2:
  pushq $81
  .cfi_adjust_cfa_offset 8
  call _libSDL2_so_save_regs_and_resolve
  addq $8, %rsp
  .cfi_adjust_cfa_offset -8
  jmp 1b
  .cfi_endproc

/*
 * Copyright 2018-2022 Yury Gribov
 *
 * The MIT License (MIT)
 *
 * Use of this source code is governed by MIT license that can be
 * found in the LICENSE.txt file.
 */

  .globl SDL_FillRects
  .p2align 4
  .type SDL_FillRects, %function
#ifndef IMPLIB_EXPORT_SHIMS
  .hidden SDL_FillRects
#endif
SDL_FillRects:
  .cfi_startproc
  .cfi_def_cfa_offset 8  // Return address
  // Intel opt. manual says to
  // "make the fall-through code following a conditional branch be the likely target for a branch with a forward target"
  // to hint static predictor.
  cmpq $0, _libSDL2_so_tramp_table+656(%rip)
  je 2f
1:
  jmp *_libSDL2_so_tramp_table+656(%rip)
2:
  pushq $82
  .cfi_adjust_cfa_offset 8
  call _libSDL2_so_save_regs_and_resolve
  addq $8, %rsp
  .cfi_adjust_cfa_offset -8
  jmp 1b
  .cfi_endproc

/*
 * Copyright 2018-2022 Yury Gribov
 *
 * The MIT License (MIT)
 *
 * Use of this source code is governed by MIT license that can be
 * found in the LICENSE.txt file.
 */

  .globl SDL_FilterEvents
  .p2align 4
  .type SDL_FilterEvents, %function
#ifndef IMPLIB_EXPORT_SHIMS
  .hidden SDL_FilterEvents
#endif
SDL_FilterEvents:
  .cfi_startproc
  .cfi_def_cfa_offset 8  // Return address
  // Intel opt. manual says to
  // "make the fall-through code following a conditional branch be the likely target for a branch with a forward target"
  // to hint static predictor.
  cmpq $0, _libSDL2_so_tramp_table+664(%rip)
  je 2f
1:
  jmp *_libSDL2_so_tramp_table+664(%rip)
2:
  pushq $83
  .cfi_adjust_cfa_offset 8
  call _libSDL2_so_save_regs_and_resolve
  addq $8, %rsp
  .cfi_adjust_cfa_offset -8
  jmp 1b
  .cfi_endproc

/*
 * Copyright 2018-2022 Yury Gribov
 *
 * The MIT License (MIT)
 *
 * Use of this source code is governed by MIT license that can be
 * found in the LICENSE.txt file.
 */

  .globl SDL_FlashWindow
  .p2align 4
  .type SDL_FlashWindow, %function
#ifndef IMPLIB_EXPORT_SHIMS
  .hidden SDL_FlashWindow
#endif
SDL_FlashWindow:
  .cfi_startproc
  .cfi_def_cfa_offset 8  // Return address
  // Intel opt. manual says to
  // "make the fall-through code following a conditional branch be the likely target for a branch with a forward target"
  // to hint static predictor.
  cmpq $0, _libSDL2_so_tramp_table+672(%rip)
  je 2f
1:
  jmp *_libSDL2_so_tramp_table+672(%rip)
2:
  pushq $84
  .cfi_adjust_cfa_offset 8
  call _libSDL2_so_save_regs_and_resolve
  addq $8, %rsp
  .cfi_adjust_cfa_offset -8
  jmp 1b
  .cfi_endproc

/*
 * Copyright 2018-2022 Yury Gribov
 *
 * The MIT License (MIT)
 *
 * Use of this source code is governed by MIT license that can be
 * found in the LICENSE.txt file.
 */

  .globl SDL_FlushEvent
  .p2align 4
  .type SDL_FlushEvent, %function
#ifndef IMPLIB_EXPORT_SHIMS
  .hidden SDL_FlushEvent
#endif
SDL_FlushEvent:
  .cfi_startproc
  .cfi_def_cfa_offset 8  // Return address
  // Intel opt. manual says to
  // "make the fall-through code following a conditional branch be the likely target for a branch with a forward target"
  // to hint static predictor.
  cmpq $0, _libSDL2_so_tramp_table+680(%rip)
  je 2f
1:
  jmp *_libSDL2_so_tramp_table+680(%rip)
2:
  pushq $85
  .cfi_adjust_cfa_offset 8
  call _libSDL2_so_save_regs_and_resolve
  addq $8, %rsp
  .cfi_adjust_cfa_offset -8
  jmp 1b
  .cfi_endproc

/*
 * Copyright 2018-2022 Yury Gribov
 *
 * The MIT License (MIT)
 *
 * Use of this source code is governed by MIT license that can be
 * found in the LICENSE.txt file.
 */

  .globl SDL_FlushEvents
  .p2align 4
  .type SDL_FlushEvents, %function
#ifndef IMPLIB_EXPORT_SHIMS
  .hidden SDL_FlushEvents
#endif
SDL_FlushEvents:
  .cfi_startproc
  .cfi_def_cfa_offset 8  // Return address
  // Intel opt. manual says to
  // "make the fall-through code following a conditional branch be the likely target for a branch with a forward target"
  // to hint static predictor.
  cmpq $0, _libSDL2_so_tramp_table+688(%rip)
  je 2f
1:
  jmp *_libSDL2_so_tramp_table+688(%rip)
2:
  pushq $86
  .cfi_adjust_cfa_offset 8
  call _libSDL2_so_save_regs_and_resolve
  addq $8, %rsp
  .cfi_adjust_cfa_offset -8
  jmp 1b
  .cfi_endproc

/*
 * Copyright 2018-2022 Yury Gribov
 *
 * The MIT License (MIT)
 *
 * Use of this source code is governed by MIT license that can be
 * found in the LICENSE.txt file.
 */

  .globl SDL_FreeAudioStream
  .p2align 4
  .type SDL_FreeAudioStream, %function
#ifndef IMPLIB_EXPORT_SHIMS
  .hidden SDL_FreeAudioStream
#endif
SDL_FreeAudioStream:
  .cfi_startproc
  .cfi_def_cfa_offset 8  // Return address
  // Intel opt. manual says to
  // "make the fall-through code following a conditional branch be the likely target for a branch with a forward target"
  // to hint static predictor.
  cmpq $0, _libSDL2_so_tramp_table+696(%rip)
  je 2f
1:
  jmp *_libSDL2_so_tramp_table+696(%rip)
2:
  pushq $87
  .cfi_adjust_cfa_offset 8
  call _libSDL2_so_save_regs_and_resolve
  addq $8, %rsp
  .cfi_adjust_cfa_offset -8
  jmp 1b
  .cfi_endproc

/*
 * Copyright 2018-2022 Yury Gribov
 *
 * The MIT License (MIT)
 *
 * Use of this source code is governed by MIT license that can be
 * found in the LICENSE.txt file.
 */

  .globl SDL_FreeCursor
  .p2align 4
  .type SDL_FreeCursor, %function
#ifndef IMPLIB_EXPORT_SHIMS
  .hidden SDL_FreeCursor
#endif
SDL_FreeCursor:
  .cfi_startproc
  .cfi_def_cfa_offset 8  // Return address
  // Intel opt. manual says to
  // "make the fall-through code following a conditional branch be the likely target for a branch with a forward target"
  // to hint static predictor.
  cmpq $0, _libSDL2_so_tramp_table+704(%rip)
  je 2f
1:
  jmp *_libSDL2_so_tramp_table+704(%rip)
2:
  pushq $88
  .cfi_adjust_cfa_offset 8
  call _libSDL2_so_save_regs_and_resolve
  addq $8, %rsp
  .cfi_adjust_cfa_offset -8
  jmp 1b
  .cfi_endproc

/*
 * Copyright 2018-2022 Yury Gribov
 *
 * The MIT License (MIT)
 *
 * Use of this source code is governed by MIT license that can be
 * found in the LICENSE.txt file.
 */

  .globl SDL_FreeFormat
  .p2align 4
  .type SDL_FreeFormat, %function
#ifndef IMPLIB_EXPORT_SHIMS
  .hidden SDL_FreeFormat
#endif
SDL_FreeFormat:
  .cfi_startproc
  .cfi_def_cfa_offset 8  // Return address
  // Intel opt. manual says to
  // "make the fall-through code following a conditional branch be the likely target for a branch with a forward target"
  // to hint static predictor.
  cmpq $0, _libSDL2_so_tramp_table+712(%rip)
  je 2f
1:
  jmp *_libSDL2_so_tramp_table+712(%rip)
2:
  pushq $89
  .cfi_adjust_cfa_offset 8
  call _libSDL2_so_save_regs_and_resolve
  addq $8, %rsp
  .cfi_adjust_cfa_offset -8
  jmp 1b
  .cfi_endproc

/*
 * Copyright 2018-2022 Yury Gribov
 *
 * The MIT License (MIT)
 *
 * Use of this source code is governed by MIT license that can be
 * found in the LICENSE.txt file.
 */

  .globl SDL_FreePalette
  .p2align 4
  .type SDL_FreePalette, %function
#ifndef IMPLIB_EXPORT_SHIMS
  .hidden SDL_FreePalette
#endif
SDL_FreePalette:
  .cfi_startproc
  .cfi_def_cfa_offset 8  // Return address
  // Intel opt. manual says to
  // "make the fall-through code following a conditional branch be the likely target for a branch with a forward target"
  // to hint static predictor.
  cmpq $0, _libSDL2_so_tramp_table+720(%rip)
  je 2f
1:
  jmp *_libSDL2_so_tramp_table+720(%rip)
2:
  pushq $90
  .cfi_adjust_cfa_offset 8
  call _libSDL2_so_save_regs_and_resolve
  addq $8, %rsp
  .cfi_adjust_cfa_offset -8
  jmp 1b
  .cfi_endproc

/*
 * Copyright 2018-2022 Yury Gribov
 *
 * The MIT License (MIT)
 *
 * Use of this source code is governed by MIT license that can be
 * found in the LICENSE.txt file.
 */

  .globl SDL_FreeRW
  .p2align 4
  .type SDL_FreeRW, %function
#ifndef IMPLIB_EXPORT_SHIMS
  .hidden SDL_FreeRW
#endif
SDL_FreeRW:
  .cfi_startproc
  .cfi_def_cfa_offset 8  // Return address
  // Intel opt. manual says to
  // "make the fall-through code following a conditional branch be the likely target for a branch with a forward target"
  // to hint static predictor.
  cmpq $0, _libSDL2_so_tramp_table+728(%rip)
  je 2f
1:
  jmp *_libSDL2_so_tramp_table+728(%rip)
2:
  pushq $91
  .cfi_adjust_cfa_offset 8
  call _libSDL2_so_save_regs_and_resolve
  addq $8, %rsp
  .cfi_adjust_cfa_offset -8
  jmp 1b
  .cfi_endproc

/*
 * Copyright 2018-2022 Yury Gribov
 *
 * The MIT License (MIT)
 *
 * Use of this source code is governed by MIT license that can be
 * found in the LICENSE.txt file.
 */

  .globl SDL_FreeSurface
  .p2align 4
  .type SDL_FreeSurface, %function
#ifndef IMPLIB_EXPORT_SHIMS
  .hidden SDL_FreeSurface
#endif
SDL_FreeSurface:
  .cfi_startproc
  .cfi_def_cfa_offset 8  // Return address
  // Intel opt. manual says to
  // "make the fall-through code following a conditional branch be the likely target for a branch with a forward target"
  // to hint static predictor.
  cmpq $0, _libSDL2_so_tramp_table+736(%rip)
  je 2f
1:
  jmp *_libSDL2_so_tramp_table+736(%rip)
2:
  pushq $92
  .cfi_adjust_cfa_offset 8
  call _libSDL2_so_save_regs_and_resolve
  addq $8, %rsp
  .cfi_adjust_cfa_offset -8
  jmp 1b
  .cfi_endproc

/*
 * Copyright 2018-2022 Yury Gribov
 *
 * The MIT License (MIT)
 *
 * Use of this source code is governed by MIT license that can be
 * found in the LICENSE.txt file.
 */

  .globl SDL_FreeWAV
  .p2align 4
  .type SDL_FreeWAV, %function
#ifndef IMPLIB_EXPORT_SHIMS
  .hidden SDL_FreeWAV
#endif
SDL_FreeWAV:
  .cfi_startproc
  .cfi_def_cfa_offset 8  // Return address
  // Intel opt. manual says to
  // "make the fall-through code following a conditional branch be the likely target for a branch with a forward target"
  // to hint static predictor.
  cmpq $0, _libSDL2_so_tramp_table+744(%rip)
  je 2f
1:
  jmp *_libSDL2_so_tramp_table+744(%rip)
2:
  pushq $93
  .cfi_adjust_cfa_offset 8
  call _libSDL2_so_save_regs_and_resolve
  addq $8, %rsp
  .cfi_adjust_cfa_offset -8
  jmp 1b
  .cfi_endproc

/*
 * Copyright 2018-2022 Yury Gribov
 *
 * The MIT License (MIT)
 *
 * Use of this source code is governed by MIT license that can be
 * found in the LICENSE.txt file.
 */

  .globl SDL_GL_BindTexture
  .p2align 4
  .type SDL_GL_BindTexture, %function
#ifndef IMPLIB_EXPORT_SHIMS
  .hidden SDL_GL_BindTexture
#endif
SDL_GL_BindTexture:
  .cfi_startproc
  .cfi_def_cfa_offset 8  // Return address
  // Intel opt. manual says to
  // "make the fall-through code following a conditional branch be the likely target for a branch with a forward target"
  // to hint static predictor.
  cmpq $0, _libSDL2_so_tramp_table+752(%rip)
  je 2f
1:
  jmp *_libSDL2_so_tramp_table+752(%rip)
2:
  pushq $94
  .cfi_adjust_cfa_offset 8
  call _libSDL2_so_save_regs_and_resolve
  addq $8, %rsp
  .cfi_adjust_cfa_offset -8
  jmp 1b
  .cfi_endproc

/*
 * Copyright 2018-2022 Yury Gribov
 *
 * The MIT License (MIT)
 *
 * Use of this source code is governed by MIT license that can be
 * found in the LICENSE.txt file.
 */

  .globl SDL_GL_CreateContext
  .p2align 4
  .type SDL_GL_CreateContext, %function
#ifndef IMPLIB_EXPORT_SHIMS
  .hidden SDL_GL_CreateContext
#endif
SDL_GL_CreateContext:
  .cfi_startproc
  .cfi_def_cfa_offset 8  // Return address
  // Intel opt. manual says to
  // "make the fall-through code following a conditional branch be the likely target for a branch with a forward target"
  // to hint static predictor.
  cmpq $0, _libSDL2_so_tramp_table+760(%rip)
  je 2f
1:
  jmp *_libSDL2_so_tramp_table+760(%rip)
2:
  pushq $95
  .cfi_adjust_cfa_offset 8
  call _libSDL2_so_save_regs_and_resolve
  addq $8, %rsp
  .cfi_adjust_cfa_offset -8
  jmp 1b
  .cfi_endproc

/*
 * Copyright 2018-2022 Yury Gribov
 *
 * The MIT License (MIT)
 *
 * Use of this source code is governed by MIT license that can be
 * found in the LICENSE.txt file.
 */

  .globl SDL_GL_DeleteContext
  .p2align 4
  .type SDL_GL_DeleteContext, %function
#ifndef IMPLIB_EXPORT_SHIMS
  .hidden SDL_GL_DeleteContext
#endif
SDL_GL_DeleteContext:
  .cfi_startproc
  .cfi_def_cfa_offset 8  // Return address
  // Intel opt. manual says to
  // "make the fall-through code following a conditional branch be the likely target for a branch with a forward target"
  // to hint static predictor.
  cmpq $0, _libSDL2_so_tramp_table+768(%rip)
  je 2f
1:
  jmp *_libSDL2_so_tramp_table+768(%rip)
2:
  pushq $96
  .cfi_adjust_cfa_offset 8
  call _libSDL2_so_save_regs_and_resolve
  addq $8, %rsp
  .cfi_adjust_cfa_offset -8
  jmp 1b
  .cfi_endproc

/*
 * Copyright 2018-2022 Yury Gribov
 *
 * The MIT License (MIT)
 *
 * Use of this source code is governed by MIT license that can be
 * found in the LICENSE.txt file.
 */

  .globl SDL_GL_ExtensionSupported
  .p2align 4
  .type SDL_GL_ExtensionSupported, %function
#ifndef IMPLIB_EXPORT_SHIMS
  .hidden SDL_GL_ExtensionSupported
#endif
SDL_GL_ExtensionSupported:
  .cfi_startproc
  .cfi_def_cfa_offset 8  // Return address
  // Intel opt. manual says to
  // "make the fall-through code following a conditional branch be the likely target for a branch with a forward target"
  // to hint static predictor.
  cmpq $0, _libSDL2_so_tramp_table+776(%rip)
  je 2f
1:
  jmp *_libSDL2_so_tramp_table+776(%rip)
2:
  pushq $97
  .cfi_adjust_cfa_offset 8
  call _libSDL2_so_save_regs_and_resolve
  addq $8, %rsp
  .cfi_adjust_cfa_offset -8
  jmp 1b
  .cfi_endproc

/*
 * Copyright 2018-2022 Yury Gribov
 *
 * The MIT License (MIT)
 *
 * Use of this source code is governed by MIT license that can be
 * found in the LICENSE.txt file.
 */

  .globl SDL_GL_GetAttribute
  .p2align 4
  .type SDL_GL_GetAttribute, %function
#ifndef IMPLIB_EXPORT_SHIMS
  .hidden SDL_GL_GetAttribute
#endif
SDL_GL_GetAttribute:
  .cfi_startproc
  .cfi_def_cfa_offset 8  // Return address
  // Intel opt. manual says to
  // "make the fall-through code following a conditional branch be the likely target for a branch with a forward target"
  // to hint static predictor.
  cmpq $0, _libSDL2_so_tramp_table+784(%rip)
  je 2f
1:
  jmp *_libSDL2_so_tramp_table+784(%rip)
2:
  pushq $98
  .cfi_adjust_cfa_offset 8
  call _libSDL2_so_save_regs_and_resolve
  addq $8, %rsp
  .cfi_adjust_cfa_offset -8
  jmp 1b
  .cfi_endproc

/*
 * Copyright 2018-2022 Yury Gribov
 *
 * The MIT License (MIT)
 *
 * Use of this source code is governed by MIT license that can be
 * found in the LICENSE.txt file.
 */

  .globl SDL_GL_GetCurrentContext
  .p2align 4
  .type SDL_GL_GetCurrentContext, %function
#ifndef IMPLIB_EXPORT_SHIMS
  .hidden SDL_GL_GetCurrentContext
#endif
SDL_GL_GetCurrentContext:
  .cfi_startproc
  .cfi_def_cfa_offset 8  // Return address
  // Intel opt. manual says to
  // "make the fall-through code following a conditional branch be the likely target for a branch with a forward target"
  // to hint static predictor.
  cmpq $0, _libSDL2_so_tramp_table+792(%rip)
  je 2f
1:
  jmp *_libSDL2_so_tramp_table+792(%rip)
2:
  pushq $99
  .cfi_adjust_cfa_offset 8
  call _libSDL2_so_save_regs_and_resolve
  addq $8, %rsp
  .cfi_adjust_cfa_offset -8
  jmp 1b
  .cfi_endproc

/*
 * Copyright 2018-2022 Yury Gribov
 *
 * The MIT License (MIT)
 *
 * Use of this source code is governed by MIT license that can be
 * found in the LICENSE.txt file.
 */

  .globl SDL_GL_GetCurrentWindow
  .p2align 4
  .type SDL_GL_GetCurrentWindow, %function
#ifndef IMPLIB_EXPORT_SHIMS
  .hidden SDL_GL_GetCurrentWindow
#endif
SDL_GL_GetCurrentWindow:
  .cfi_startproc
  .cfi_def_cfa_offset 8  // Return address
  // Intel opt. manual says to
  // "make the fall-through code following a conditional branch be the likely target for a branch with a forward target"
  // to hint static predictor.
  cmpq $0, _libSDL2_so_tramp_table+800(%rip)
  je 2f
1:
  jmp *_libSDL2_so_tramp_table+800(%rip)
2:
  pushq $100
  .cfi_adjust_cfa_offset 8
  call _libSDL2_so_save_regs_and_resolve
  addq $8, %rsp
  .cfi_adjust_cfa_offset -8
  jmp 1b
  .cfi_endproc

/*
 * Copyright 2018-2022 Yury Gribov
 *
 * The MIT License (MIT)
 *
 * Use of this source code is governed by MIT license that can be
 * found in the LICENSE.txt file.
 */

  .globl SDL_GL_GetDrawableSize
  .p2align 4
  .type SDL_GL_GetDrawableSize, %function
#ifndef IMPLIB_EXPORT_SHIMS
  .hidden SDL_GL_GetDrawableSize
#endif
SDL_GL_GetDrawableSize:
  .cfi_startproc
  .cfi_def_cfa_offset 8  // Return address
  // Intel opt. manual says to
  // "make the fall-through code following a conditional branch be the likely target for a branch with a forward target"
  // to hint static predictor.
  cmpq $0, _libSDL2_so_tramp_table+808(%rip)
  je 2f
1:
  jmp *_libSDL2_so_tramp_table+808(%rip)
2:
  pushq $101
  .cfi_adjust_cfa_offset 8
  call _libSDL2_so_save_regs_and_resolve
  addq $8, %rsp
  .cfi_adjust_cfa_offset -8
  jmp 1b
  .cfi_endproc

/*
 * Copyright 2018-2022 Yury Gribov
 *
 * The MIT License (MIT)
 *
 * Use of this source code is governed by MIT license that can be
 * found in the LICENSE.txt file.
 */

  .globl SDL_GL_GetProcAddress
  .p2align 4
  .type SDL_GL_GetProcAddress, %function
#ifndef IMPLIB_EXPORT_SHIMS
  .hidden SDL_GL_GetProcAddress
#endif
SDL_GL_GetProcAddress:
  .cfi_startproc
  .cfi_def_cfa_offset 8  // Return address
  // Intel opt. manual says to
  // "make the fall-through code following a conditional branch be the likely target for a branch with a forward target"
  // to hint static predictor.
  cmpq $0, _libSDL2_so_tramp_table+816(%rip)
  je 2f
1:
  jmp *_libSDL2_so_tramp_table+816(%rip)
2:
  pushq $102
  .cfi_adjust_cfa_offset 8
  call _libSDL2_so_save_regs_and_resolve
  addq $8, %rsp
  .cfi_adjust_cfa_offset -8
  jmp 1b
  .cfi_endproc

/*
 * Copyright 2018-2022 Yury Gribov
 *
 * The MIT License (MIT)
 *
 * Use of this source code is governed by MIT license that can be
 * found in the LICENSE.txt file.
 */

  .globl SDL_GL_GetSwapInterval
  .p2align 4
  .type SDL_GL_GetSwapInterval, %function
#ifndef IMPLIB_EXPORT_SHIMS
  .hidden SDL_GL_GetSwapInterval
#endif
SDL_GL_GetSwapInterval:
  .cfi_startproc
  .cfi_def_cfa_offset 8  // Return address
  // Intel opt. manual says to
  // "make the fall-through code following a conditional branch be the likely target for a branch with a forward target"
  // to hint static predictor.
  cmpq $0, _libSDL2_so_tramp_table+824(%rip)
  je 2f
1:
  jmp *_libSDL2_so_tramp_table+824(%rip)
2:
  pushq $103
  .cfi_adjust_cfa_offset 8
  call _libSDL2_so_save_regs_and_resolve
  addq $8, %rsp
  .cfi_adjust_cfa_offset -8
  jmp 1b
  .cfi_endproc

/*
 * Copyright 2018-2022 Yury Gribov
 *
 * The MIT License (MIT)
 *
 * Use of this source code is governed by MIT license that can be
 * found in the LICENSE.txt file.
 */

  .globl SDL_GL_LoadLibrary
  .p2align 4
  .type SDL_GL_LoadLibrary, %function
#ifndef IMPLIB_EXPORT_SHIMS
  .hidden SDL_GL_LoadLibrary
#endif
SDL_GL_LoadLibrary:
  .cfi_startproc
  .cfi_def_cfa_offset 8  // Return address
  // Intel opt. manual says to
  // "make the fall-through code following a conditional branch be the likely target for a branch with a forward target"
  // to hint static predictor.
  cmpq $0, _libSDL2_so_tramp_table+832(%rip)
  je 2f
1:
  jmp *_libSDL2_so_tramp_table+832(%rip)
2:
  pushq $104
  .cfi_adjust_cfa_offset 8
  call _libSDL2_so_save_regs_and_resolve
  addq $8, %rsp
  .cfi_adjust_cfa_offset -8
  jmp 1b
  .cfi_endproc

/*
 * Copyright 2018-2022 Yury Gribov
 *
 * The MIT License (MIT)
 *
 * Use of this source code is governed by MIT license that can be
 * found in the LICENSE.txt file.
 */

  .globl SDL_GL_MakeCurrent
  .p2align 4
  .type SDL_GL_MakeCurrent, %function
#ifndef IMPLIB_EXPORT_SHIMS
  .hidden SDL_GL_MakeCurrent
#endif
SDL_GL_MakeCurrent:
  .cfi_startproc
  .cfi_def_cfa_offset 8  // Return address
  // Intel opt. manual says to
  // "make the fall-through code following a conditional branch be the likely target for a branch with a forward target"
  // to hint static predictor.
  cmpq $0, _libSDL2_so_tramp_table+840(%rip)
  je 2f
1:
  jmp *_libSDL2_so_tramp_table+840(%rip)
2:
  pushq $105
  .cfi_adjust_cfa_offset 8
  call _libSDL2_so_save_regs_and_resolve
  addq $8, %rsp
  .cfi_adjust_cfa_offset -8
  jmp 1b
  .cfi_endproc

/*
 * Copyright 2018-2022 Yury Gribov
 *
 * The MIT License (MIT)
 *
 * Use of this source code is governed by MIT license that can be
 * found in the LICENSE.txt file.
 */

  .globl SDL_GL_ResetAttributes
  .p2align 4
  .type SDL_GL_ResetAttributes, %function
#ifndef IMPLIB_EXPORT_SHIMS
  .hidden SDL_GL_ResetAttributes
#endif
SDL_GL_ResetAttributes:
  .cfi_startproc
  .cfi_def_cfa_offset 8  // Return address
  // Intel opt. manual says to
  // "make the fall-through code following a conditional branch be the likely target for a branch with a forward target"
  // to hint static predictor.
  cmpq $0, _libSDL2_so_tramp_table+848(%rip)
  je 2f
1:
  jmp *_libSDL2_so_tramp_table+848(%rip)
2:
  pushq $106
  .cfi_adjust_cfa_offset 8
  call _libSDL2_so_save_regs_and_resolve
  addq $8, %rsp
  .cfi_adjust_cfa_offset -8
  jmp 1b
  .cfi_endproc

/*
 * Copyright 2018-2022 Yury Gribov
 *
 * The MIT License (MIT)
 *
 * Use of this source code is governed by MIT license that can be
 * found in the LICENSE.txt file.
 */

  .globl SDL_GL_SetAttribute
  .p2align 4
  .type SDL_GL_SetAttribute, %function
#ifndef IMPLIB_EXPORT_SHIMS
  .hidden SDL_GL_SetAttribute
#endif
SDL_GL_SetAttribute:
  .cfi_startproc
  .cfi_def_cfa_offset 8  // Return address
  // Intel opt. manual says to
  // "make the fall-through code following a conditional branch be the likely target for a branch with a forward target"
  // to hint static predictor.
  cmpq $0, _libSDL2_so_tramp_table+856(%rip)
  je 2f
1:
  jmp *_libSDL2_so_tramp_table+856(%rip)
2:
  pushq $107
  .cfi_adjust_cfa_offset 8
  call _libSDL2_so_save_regs_and_resolve
  addq $8, %rsp
  .cfi_adjust_cfa_offset -8
  jmp 1b
  .cfi_endproc

/*
 * Copyright 2018-2022 Yury Gribov
 *
 * The MIT License (MIT)
 *
 * Use of this source code is governed by MIT license that can be
 * found in the LICENSE.txt file.
 */

  .globl SDL_GL_SetSwapInterval
  .p2align 4
  .type SDL_GL_SetSwapInterval, %function
#ifndef IMPLIB_EXPORT_SHIMS
  .hidden SDL_GL_SetSwapInterval
#endif
SDL_GL_SetSwapInterval:
  .cfi_startproc
  .cfi_def_cfa_offset 8  // Return address
  // Intel opt. manual says to
  // "make the fall-through code following a conditional branch be the likely target for a branch with a forward target"
  // to hint static predictor.
  cmpq $0, _libSDL2_so_tramp_table+864(%rip)
  je 2f
1:
  jmp *_libSDL2_so_tramp_table+864(%rip)
2:
  pushq $108
  .cfi_adjust_cfa_offset 8
  call _libSDL2_so_save_regs_and_resolve
  addq $8, %rsp
  .cfi_adjust_cfa_offset -8
  jmp 1b
  .cfi_endproc

/*
 * Copyright 2018-2022 Yury Gribov
 *
 * The MIT License (MIT)
 *
 * Use of this source code is governed by MIT license that can be
 * found in the LICENSE.txt file.
 */

  .globl SDL_GL_SwapWindow
  .p2align 4
  .type SDL_GL_SwapWindow, %function
#ifndef IMPLIB_EXPORT_SHIMS
  .hidden SDL_GL_SwapWindow
#endif
SDL_GL_SwapWindow:
  .cfi_startproc
  .cfi_def_cfa_offset 8  // Return address
  // Intel opt. manual says to
  // "make the fall-through code following a conditional branch be the likely target for a branch with a forward target"
  // to hint static predictor.
  cmpq $0, _libSDL2_so_tramp_table+872(%rip)
  je 2f
1:
  jmp *_libSDL2_so_tramp_table+872(%rip)
2:
  pushq $109
  .cfi_adjust_cfa_offset 8
  call _libSDL2_so_save_regs_and_resolve
  addq $8, %rsp
  .cfi_adjust_cfa_offset -8
  jmp 1b
  .cfi_endproc

/*
 * Copyright 2018-2022 Yury Gribov
 *
 * The MIT License (MIT)
 *
 * Use of this source code is governed by MIT license that can be
 * found in the LICENSE.txt file.
 */

  .globl SDL_GL_UnbindTexture
  .p2align 4
  .type SDL_GL_UnbindTexture, %function
#ifndef IMPLIB_EXPORT_SHIMS
  .hidden SDL_GL_UnbindTexture
#endif
SDL_GL_UnbindTexture:
  .cfi_startproc
  .cfi_def_cfa_offset 8  // Return address
  // Intel opt. manual says to
  // "make the fall-through code following a conditional branch be the likely target for a branch with a forward target"
  // to hint static predictor.
  cmpq $0, _libSDL2_so_tramp_table+880(%rip)
  je 2f
1:
  jmp *_libSDL2_so_tramp_table+880(%rip)
2:
  pushq $110
  .cfi_adjust_cfa_offset 8
  call _libSDL2_so_save_regs_and_resolve
  addq $8, %rsp
  .cfi_adjust_cfa_offset -8
  jmp 1b
  .cfi_endproc

/*
 * Copyright 2018-2022 Yury Gribov
 *
 * The MIT License (MIT)
 *
 * Use of this source code is governed by MIT license that can be
 * found in the LICENSE.txt file.
 */

  .globl SDL_GL_UnloadLibrary
  .p2align 4
  .type SDL_GL_UnloadLibrary, %function
#ifndef IMPLIB_EXPORT_SHIMS
  .hidden SDL_GL_UnloadLibrary
#endif
SDL_GL_UnloadLibrary:
  .cfi_startproc
  .cfi_def_cfa_offset 8  // Return address
  // Intel opt. manual says to
  // "make the fall-through code following a conditional branch be the likely target for a branch with a forward target"
  // to hint static predictor.
  cmpq $0, _libSDL2_so_tramp_table+888(%rip)
  je 2f
1:
  jmp *_libSDL2_so_tramp_table+888(%rip)
2:
  pushq $111
  .cfi_adjust_cfa_offset 8
  call _libSDL2_so_save_regs_and_resolve
  addq $8, %rsp
  .cfi_adjust_cfa_offset -8
  jmp 1b
  .cfi_endproc

/*
 * Copyright 2018-2022 Yury Gribov
 *
 * The MIT License (MIT)
 *
 * Use of this source code is governed by MIT license that can be
 * found in the LICENSE.txt file.
 */

  .globl SDL_GUIDFromString
  .p2align 4
  .type SDL_GUIDFromString, %function
#ifndef IMPLIB_EXPORT_SHIMS
  .hidden SDL_GUIDFromString
#endif
SDL_GUIDFromString:
  .cfi_startproc
  .cfi_def_cfa_offset 8  // Return address
  // Intel opt. manual says to
  // "make the fall-through code following a conditional branch be the likely target for a branch with a forward target"
  // to hint static predictor.
  cmpq $0, _libSDL2_so_tramp_table+896(%rip)
  je 2f
1:
  jmp *_libSDL2_so_tramp_table+896(%rip)
2:
  pushq $112
  .cfi_adjust_cfa_offset 8
  call _libSDL2_so_save_regs_and_resolve
  addq $8, %rsp
  .cfi_adjust_cfa_offset -8
  jmp 1b
  .cfi_endproc

/*
 * Copyright 2018-2022 Yury Gribov
 *
 * The MIT License (MIT)
 *
 * Use of this source code is governed by MIT license that can be
 * found in the LICENSE.txt file.
 */

  .globl SDL_GUIDToString
  .p2align 4
  .type SDL_GUIDToString, %function
#ifndef IMPLIB_EXPORT_SHIMS
  .hidden SDL_GUIDToString
#endif
SDL_GUIDToString:
  .cfi_startproc
  .cfi_def_cfa_offset 8  // Return address
  // Intel opt. manual says to
  // "make the fall-through code following a conditional branch be the likely target for a branch with a forward target"
  // to hint static predictor.
  cmpq $0, _libSDL2_so_tramp_table+904(%rip)
  je 2f
1:
  jmp *_libSDL2_so_tramp_table+904(%rip)
2:
  pushq $113
  .cfi_adjust_cfa_offset 8
  call _libSDL2_so_save_regs_and_resolve
  addq $8, %rsp
  .cfi_adjust_cfa_offset -8
  jmp 1b
  .cfi_endproc

/*
 * Copyright 2018-2022 Yury Gribov
 *
 * The MIT License (MIT)
 *
 * Use of this source code is governed by MIT license that can be
 * found in the LICENSE.txt file.
 */

  .globl SDL_GameControllerAddMapping
  .p2align 4
  .type SDL_GameControllerAddMapping, %function
#ifndef IMPLIB_EXPORT_SHIMS
  .hidden SDL_GameControllerAddMapping
#endif
SDL_GameControllerAddMapping:
  .cfi_startproc
  .cfi_def_cfa_offset 8  // Return address
  // Intel opt. manual says to
  // "make the fall-through code following a conditional branch be the likely target for a branch with a forward target"
  // to hint static predictor.
  cmpq $0, _libSDL2_so_tramp_table+912(%rip)
  je 2f
1:
  jmp *_libSDL2_so_tramp_table+912(%rip)
2:
  pushq $114
  .cfi_adjust_cfa_offset 8
  call _libSDL2_so_save_regs_and_resolve
  addq $8, %rsp
  .cfi_adjust_cfa_offset -8
  jmp 1b
  .cfi_endproc

/*
 * Copyright 2018-2022 Yury Gribov
 *
 * The MIT License (MIT)
 *
 * Use of this source code is governed by MIT license that can be
 * found in the LICENSE.txt file.
 */

  .globl SDL_GameControllerAddMappingsFromRW
  .p2align 4
  .type SDL_GameControllerAddMappingsFromRW, %function
#ifndef IMPLIB_EXPORT_SHIMS
  .hidden SDL_GameControllerAddMappingsFromRW
#endif
SDL_GameControllerAddMappingsFromRW:
  .cfi_startproc
  .cfi_def_cfa_offset 8  // Return address
  // Intel opt. manual says to
  // "make the fall-through code following a conditional branch be the likely target for a branch with a forward target"
  // to hint static predictor.
  cmpq $0, _libSDL2_so_tramp_table+920(%rip)
  je 2f
1:
  jmp *_libSDL2_so_tramp_table+920(%rip)
2:
  pushq $115
  .cfi_adjust_cfa_offset 8
  call _libSDL2_so_save_regs_and_resolve
  addq $8, %rsp
  .cfi_adjust_cfa_offset -8
  jmp 1b
  .cfi_endproc

/*
 * Copyright 2018-2022 Yury Gribov
 *
 * The MIT License (MIT)
 *
 * Use of this source code is governed by MIT license that can be
 * found in the LICENSE.txt file.
 */

  .globl SDL_GameControllerClose
  .p2align 4
  .type SDL_GameControllerClose, %function
#ifndef IMPLIB_EXPORT_SHIMS
  .hidden SDL_GameControllerClose
#endif
SDL_GameControllerClose:
  .cfi_startproc
  .cfi_def_cfa_offset 8  // Return address
  // Intel opt. manual says to
  // "make the fall-through code following a conditional branch be the likely target for a branch with a forward target"
  // to hint static predictor.
  cmpq $0, _libSDL2_so_tramp_table+928(%rip)
  je 2f
1:
  jmp *_libSDL2_so_tramp_table+928(%rip)
2:
  pushq $116
  .cfi_adjust_cfa_offset 8
  call _libSDL2_so_save_regs_and_resolve
  addq $8, %rsp
  .cfi_adjust_cfa_offset -8
  jmp 1b
  .cfi_endproc

/*
 * Copyright 2018-2022 Yury Gribov
 *
 * The MIT License (MIT)
 *
 * Use of this source code is governed by MIT license that can be
 * found in the LICENSE.txt file.
 */

  .globl SDL_GameControllerEventState
  .p2align 4
  .type SDL_GameControllerEventState, %function
#ifndef IMPLIB_EXPORT_SHIMS
  .hidden SDL_GameControllerEventState
#endif
SDL_GameControllerEventState:
  .cfi_startproc
  .cfi_def_cfa_offset 8  // Return address
  // Intel opt. manual says to
  // "make the fall-through code following a conditional branch be the likely target for a branch with a forward target"
  // to hint static predictor.
  cmpq $0, _libSDL2_so_tramp_table+936(%rip)
  je 2f
1:
  jmp *_libSDL2_so_tramp_table+936(%rip)
2:
  pushq $117
  .cfi_adjust_cfa_offset 8
  call _libSDL2_so_save_regs_and_resolve
  addq $8, %rsp
  .cfi_adjust_cfa_offset -8
  jmp 1b
  .cfi_endproc

/*
 * Copyright 2018-2022 Yury Gribov
 *
 * The MIT License (MIT)
 *
 * Use of this source code is governed by MIT license that can be
 * found in the LICENSE.txt file.
 */

  .globl SDL_GameControllerFromInstanceID
  .p2align 4
  .type SDL_GameControllerFromInstanceID, %function
#ifndef IMPLIB_EXPORT_SHIMS
  .hidden SDL_GameControllerFromInstanceID
#endif
SDL_GameControllerFromInstanceID:
  .cfi_startproc
  .cfi_def_cfa_offset 8  // Return address
  // Intel opt. manual says to
  // "make the fall-through code following a conditional branch be the likely target for a branch with a forward target"
  // to hint static predictor.
  cmpq $0, _libSDL2_so_tramp_table+944(%rip)
  je 2f
1:
  jmp *_libSDL2_so_tramp_table+944(%rip)
2:
  pushq $118
  .cfi_adjust_cfa_offset 8
  call _libSDL2_so_save_regs_and_resolve
  addq $8, %rsp
  .cfi_adjust_cfa_offset -8
  jmp 1b
  .cfi_endproc

/*
 * Copyright 2018-2022 Yury Gribov
 *
 * The MIT License (MIT)
 *
 * Use of this source code is governed by MIT license that can be
 * found in the LICENSE.txt file.
 */

  .globl SDL_GameControllerFromPlayerIndex
  .p2align 4
  .type SDL_GameControllerFromPlayerIndex, %function
#ifndef IMPLIB_EXPORT_SHIMS
  .hidden SDL_GameControllerFromPlayerIndex
#endif
SDL_GameControllerFromPlayerIndex:
  .cfi_startproc
  .cfi_def_cfa_offset 8  // Return address
  // Intel opt. manual says to
  // "make the fall-through code following a conditional branch be the likely target for a branch with a forward target"
  // to hint static predictor.
  cmpq $0, _libSDL2_so_tramp_table+952(%rip)
  je 2f
1:
  jmp *_libSDL2_so_tramp_table+952(%rip)
2:
  pushq $119
  .cfi_adjust_cfa_offset 8
  call _libSDL2_so_save_regs_and_resolve
  addq $8, %rsp
  .cfi_adjust_cfa_offset -8
  jmp 1b
  .cfi_endproc

/*
 * Copyright 2018-2022 Yury Gribov
 *
 * The MIT License (MIT)
 *
 * Use of this source code is governed by MIT license that can be
 * found in the LICENSE.txt file.
 */

  .globl SDL_GameControllerGetAppleSFSymbolsNameForAxis
  .p2align 4
  .type SDL_GameControllerGetAppleSFSymbolsNameForAxis, %function
#ifndef IMPLIB_EXPORT_SHIMS
  .hidden SDL_GameControllerGetAppleSFSymbolsNameForAxis
#endif
SDL_GameControllerGetAppleSFSymbolsNameForAxis:
  .cfi_startproc
  .cfi_def_cfa_offset 8  // Return address
  // Intel opt. manual says to
  // "make the fall-through code following a conditional branch be the likely target for a branch with a forward target"
  // to hint static predictor.
  cmpq $0, _libSDL2_so_tramp_table+960(%rip)
  je 2f
1:
  jmp *_libSDL2_so_tramp_table+960(%rip)
2:
  pushq $120
  .cfi_adjust_cfa_offset 8
  call _libSDL2_so_save_regs_and_resolve
  addq $8, %rsp
  .cfi_adjust_cfa_offset -8
  jmp 1b
  .cfi_endproc

/*
 * Copyright 2018-2022 Yury Gribov
 *
 * The MIT License (MIT)
 *
 * Use of this source code is governed by MIT license that can be
 * found in the LICENSE.txt file.
 */

  .globl SDL_GameControllerGetAppleSFSymbolsNameForButton
  .p2align 4
  .type SDL_GameControllerGetAppleSFSymbolsNameForButton, %function
#ifndef IMPLIB_EXPORT_SHIMS
  .hidden SDL_GameControllerGetAppleSFSymbolsNameForButton
#endif
SDL_GameControllerGetAppleSFSymbolsNameForButton:
  .cfi_startproc
  .cfi_def_cfa_offset 8  // Return address
  // Intel opt. manual says to
  // "make the fall-through code following a conditional branch be the likely target for a branch with a forward target"
  // to hint static predictor.
  cmpq $0, _libSDL2_so_tramp_table+968(%rip)
  je 2f
1:
  jmp *_libSDL2_so_tramp_table+968(%rip)
2:
  pushq $121
  .cfi_adjust_cfa_offset 8
  call _libSDL2_so_save_regs_and_resolve
  addq $8, %rsp
  .cfi_adjust_cfa_offset -8
  jmp 1b
  .cfi_endproc

/*
 * Copyright 2018-2022 Yury Gribov
 *
 * The MIT License (MIT)
 *
 * Use of this source code is governed by MIT license that can be
 * found in the LICENSE.txt file.
 */

  .globl SDL_GameControllerGetAttached
  .p2align 4
  .type SDL_GameControllerGetAttached, %function
#ifndef IMPLIB_EXPORT_SHIMS
  .hidden SDL_GameControllerGetAttached
#endif
SDL_GameControllerGetAttached:
  .cfi_startproc
  .cfi_def_cfa_offset 8  // Return address
  // Intel opt. manual says to
  // "make the fall-through code following a conditional branch be the likely target for a branch with a forward target"
  // to hint static predictor.
  cmpq $0, _libSDL2_so_tramp_table+976(%rip)
  je 2f
1:
  jmp *_libSDL2_so_tramp_table+976(%rip)
2:
  pushq $122
  .cfi_adjust_cfa_offset 8
  call _libSDL2_so_save_regs_and_resolve
  addq $8, %rsp
  .cfi_adjust_cfa_offset -8
  jmp 1b
  .cfi_endproc

/*
 * Copyright 2018-2022 Yury Gribov
 *
 * The MIT License (MIT)
 *
 * Use of this source code is governed by MIT license that can be
 * found in the LICENSE.txt file.
 */

  .globl SDL_GameControllerGetAxis
  .p2align 4
  .type SDL_GameControllerGetAxis, %function
#ifndef IMPLIB_EXPORT_SHIMS
  .hidden SDL_GameControllerGetAxis
#endif
SDL_GameControllerGetAxis:
  .cfi_startproc
  .cfi_def_cfa_offset 8  // Return address
  // Intel opt. manual says to
  // "make the fall-through code following a conditional branch be the likely target for a branch with a forward target"
  // to hint static predictor.
  cmpq $0, _libSDL2_so_tramp_table+984(%rip)
  je 2f
1:
  jmp *_libSDL2_so_tramp_table+984(%rip)
2:
  pushq $123
  .cfi_adjust_cfa_offset 8
  call _libSDL2_so_save_regs_and_resolve
  addq $8, %rsp
  .cfi_adjust_cfa_offset -8
  jmp 1b
  .cfi_endproc

/*
 * Copyright 2018-2022 Yury Gribov
 *
 * The MIT License (MIT)
 *
 * Use of this source code is governed by MIT license that can be
 * found in the LICENSE.txt file.
 */

  .globl SDL_GameControllerGetAxisFromString
  .p2align 4
  .type SDL_GameControllerGetAxisFromString, %function
#ifndef IMPLIB_EXPORT_SHIMS
  .hidden SDL_GameControllerGetAxisFromString
#endif
SDL_GameControllerGetAxisFromString:
  .cfi_startproc
  .cfi_def_cfa_offset 8  // Return address
  // Intel opt. manual says to
  // "make the fall-through code following a conditional branch be the likely target for a branch with a forward target"
  // to hint static predictor.
  cmpq $0, _libSDL2_so_tramp_table+992(%rip)
  je 2f
1:
  jmp *_libSDL2_so_tramp_table+992(%rip)
2:
  pushq $124
  .cfi_adjust_cfa_offset 8
  call _libSDL2_so_save_regs_and_resolve
  addq $8, %rsp
  .cfi_adjust_cfa_offset -8
  jmp 1b
  .cfi_endproc

/*
 * Copyright 2018-2022 Yury Gribov
 *
 * The MIT License (MIT)
 *
 * Use of this source code is governed by MIT license that can be
 * found in the LICENSE.txt file.
 */

  .globl SDL_GameControllerGetBindForAxis
  .p2align 4
  .type SDL_GameControllerGetBindForAxis, %function
#ifndef IMPLIB_EXPORT_SHIMS
  .hidden SDL_GameControllerGetBindForAxis
#endif
SDL_GameControllerGetBindForAxis:
  .cfi_startproc
  .cfi_def_cfa_offset 8  // Return address
  // Intel opt. manual says to
  // "make the fall-through code following a conditional branch be the likely target for a branch with a forward target"
  // to hint static predictor.
  cmpq $0, _libSDL2_so_tramp_table+1000(%rip)
  je 2f
1:
  jmp *_libSDL2_so_tramp_table+1000(%rip)
2:
  pushq $125
  .cfi_adjust_cfa_offset 8
  call _libSDL2_so_save_regs_and_resolve
  addq $8, %rsp
  .cfi_adjust_cfa_offset -8
  jmp 1b
  .cfi_endproc

/*
 * Copyright 2018-2022 Yury Gribov
 *
 * The MIT License (MIT)
 *
 * Use of this source code is governed by MIT license that can be
 * found in the LICENSE.txt file.
 */

  .globl SDL_GameControllerGetBindForButton
  .p2align 4
  .type SDL_GameControllerGetBindForButton, %function
#ifndef IMPLIB_EXPORT_SHIMS
  .hidden SDL_GameControllerGetBindForButton
#endif
SDL_GameControllerGetBindForButton:
  .cfi_startproc
  .cfi_def_cfa_offset 8  // Return address
  // Intel opt. manual says to
  // "make the fall-through code following a conditional branch be the likely target for a branch with a forward target"
  // to hint static predictor.
  cmpq $0, _libSDL2_so_tramp_table+1008(%rip)
  je 2f
1:
  jmp *_libSDL2_so_tramp_table+1008(%rip)
2:
  pushq $126
  .cfi_adjust_cfa_offset 8
  call _libSDL2_so_save_regs_and_resolve
  addq $8, %rsp
  .cfi_adjust_cfa_offset -8
  jmp 1b
  .cfi_endproc

/*
 * Copyright 2018-2022 Yury Gribov
 *
 * The MIT License (MIT)
 *
 * Use of this source code is governed by MIT license that can be
 * found in the LICENSE.txt file.
 */

  .globl SDL_GameControllerGetButton
  .p2align 4
  .type SDL_GameControllerGetButton, %function
#ifndef IMPLIB_EXPORT_SHIMS
  .hidden SDL_GameControllerGetButton
#endif
SDL_GameControllerGetButton:
  .cfi_startproc
  .cfi_def_cfa_offset 8  // Return address
  // Intel opt. manual says to
  // "make the fall-through code following a conditional branch be the likely target for a branch with a forward target"
  // to hint static predictor.
  cmpq $0, _libSDL2_so_tramp_table+1016(%rip)
  je 2f
1:
  jmp *_libSDL2_so_tramp_table+1016(%rip)
2:
  pushq $127
  .cfi_adjust_cfa_offset 8
  call _libSDL2_so_save_regs_and_resolve
  addq $8, %rsp
  .cfi_adjust_cfa_offset -8
  jmp 1b
  .cfi_endproc

/*
 * Copyright 2018-2022 Yury Gribov
 *
 * The MIT License (MIT)
 *
 * Use of this source code is governed by MIT license that can be
 * found in the LICENSE.txt file.
 */

  .globl SDL_GameControllerGetButtonFromString
  .p2align 4
  .type SDL_GameControllerGetButtonFromString, %function
#ifndef IMPLIB_EXPORT_SHIMS
  .hidden SDL_GameControllerGetButtonFromString
#endif
SDL_GameControllerGetButtonFromString:
  .cfi_startproc
  .cfi_def_cfa_offset 8  // Return address
  // Intel opt. manual says to
  // "make the fall-through code following a conditional branch be the likely target for a branch with a forward target"
  // to hint static predictor.
  cmpq $0, _libSDL2_so_tramp_table+1024(%rip)
  je 2f
1:
  jmp *_libSDL2_so_tramp_table+1024(%rip)
2:
  pushq $128
  .cfi_adjust_cfa_offset 8
  call _libSDL2_so_save_regs_and_resolve
  addq $8, %rsp
  .cfi_adjust_cfa_offset -8
  jmp 1b
  .cfi_endproc

/*
 * Copyright 2018-2022 Yury Gribov
 *
 * The MIT License (MIT)
 *
 * Use of this source code is governed by MIT license that can be
 * found in the LICENSE.txt file.
 */

  .globl SDL_GameControllerGetFirmwareVersion
  .p2align 4
  .type SDL_GameControllerGetFirmwareVersion, %function
#ifndef IMPLIB_EXPORT_SHIMS
  .hidden SDL_GameControllerGetFirmwareVersion
#endif
SDL_GameControllerGetFirmwareVersion:
  .cfi_startproc
  .cfi_def_cfa_offset 8  // Return address
  // Intel opt. manual says to
  // "make the fall-through code following a conditional branch be the likely target for a branch with a forward target"
  // to hint static predictor.
  cmpq $0, _libSDL2_so_tramp_table+1032(%rip)
  je 2f
1:
  jmp *_libSDL2_so_tramp_table+1032(%rip)
2:
  pushq $129
  .cfi_adjust_cfa_offset 8
  call _libSDL2_so_save_regs_and_resolve
  addq $8, %rsp
  .cfi_adjust_cfa_offset -8
  jmp 1b
  .cfi_endproc

/*
 * Copyright 2018-2022 Yury Gribov
 *
 * The MIT License (MIT)
 *
 * Use of this source code is governed by MIT license that can be
 * found in the LICENSE.txt file.
 */

  .globl SDL_GameControllerGetJoystick
  .p2align 4
  .type SDL_GameControllerGetJoystick, %function
#ifndef IMPLIB_EXPORT_SHIMS
  .hidden SDL_GameControllerGetJoystick
#endif
SDL_GameControllerGetJoystick:
  .cfi_startproc
  .cfi_def_cfa_offset 8  // Return address
  // Intel opt. manual says to
  // "make the fall-through code following a conditional branch be the likely target for a branch with a forward target"
  // to hint static predictor.
  cmpq $0, _libSDL2_so_tramp_table+1040(%rip)
  je 2f
1:
  jmp *_libSDL2_so_tramp_table+1040(%rip)
2:
  pushq $130
  .cfi_adjust_cfa_offset 8
  call _libSDL2_so_save_regs_and_resolve
  addq $8, %rsp
  .cfi_adjust_cfa_offset -8
  jmp 1b
  .cfi_endproc

/*
 * Copyright 2018-2022 Yury Gribov
 *
 * The MIT License (MIT)
 *
 * Use of this source code is governed by MIT license that can be
 * found in the LICENSE.txt file.
 */

  .globl SDL_GameControllerGetNumTouchpadFingers
  .p2align 4
  .type SDL_GameControllerGetNumTouchpadFingers, %function
#ifndef IMPLIB_EXPORT_SHIMS
  .hidden SDL_GameControllerGetNumTouchpadFingers
#endif
SDL_GameControllerGetNumTouchpadFingers:
  .cfi_startproc
  .cfi_def_cfa_offset 8  // Return address
  // Intel opt. manual says to
  // "make the fall-through code following a conditional branch be the likely target for a branch with a forward target"
  // to hint static predictor.
  cmpq $0, _libSDL2_so_tramp_table+1048(%rip)
  je 2f
1:
  jmp *_libSDL2_so_tramp_table+1048(%rip)
2:
  pushq $131
  .cfi_adjust_cfa_offset 8
  call _libSDL2_so_save_regs_and_resolve
  addq $8, %rsp
  .cfi_adjust_cfa_offset -8
  jmp 1b
  .cfi_endproc

/*
 * Copyright 2018-2022 Yury Gribov
 *
 * The MIT License (MIT)
 *
 * Use of this source code is governed by MIT license that can be
 * found in the LICENSE.txt file.
 */

  .globl SDL_GameControllerGetNumTouchpads
  .p2align 4
  .type SDL_GameControllerGetNumTouchpads, %function
#ifndef IMPLIB_EXPORT_SHIMS
  .hidden SDL_GameControllerGetNumTouchpads
#endif
SDL_GameControllerGetNumTouchpads:
  .cfi_startproc
  .cfi_def_cfa_offset 8  // Return address
  // Intel opt. manual says to
  // "make the fall-through code following a conditional branch be the likely target for a branch with a forward target"
  // to hint static predictor.
  cmpq $0, _libSDL2_so_tramp_table+1056(%rip)
  je 2f
1:
  jmp *_libSDL2_so_tramp_table+1056(%rip)
2:
  pushq $132
  .cfi_adjust_cfa_offset 8
  call _libSDL2_so_save_regs_and_resolve
  addq $8, %rsp
  .cfi_adjust_cfa_offset -8
  jmp 1b
  .cfi_endproc

/*
 * Copyright 2018-2022 Yury Gribov
 *
 * The MIT License (MIT)
 *
 * Use of this source code is governed by MIT license that can be
 * found in the LICENSE.txt file.
 */

  .globl SDL_GameControllerGetPlayerIndex
  .p2align 4
  .type SDL_GameControllerGetPlayerIndex, %function
#ifndef IMPLIB_EXPORT_SHIMS
  .hidden SDL_GameControllerGetPlayerIndex
#endif
SDL_GameControllerGetPlayerIndex:
  .cfi_startproc
  .cfi_def_cfa_offset 8  // Return address
  // Intel opt. manual says to
  // "make the fall-through code following a conditional branch be the likely target for a branch with a forward target"
  // to hint static predictor.
  cmpq $0, _libSDL2_so_tramp_table+1064(%rip)
  je 2f
1:
  jmp *_libSDL2_so_tramp_table+1064(%rip)
2:
  pushq $133
  .cfi_adjust_cfa_offset 8
  call _libSDL2_so_save_regs_and_resolve
  addq $8, %rsp
  .cfi_adjust_cfa_offset -8
  jmp 1b
  .cfi_endproc

/*
 * Copyright 2018-2022 Yury Gribov
 *
 * The MIT License (MIT)
 *
 * Use of this source code is governed by MIT license that can be
 * found in the LICENSE.txt file.
 */

  .globl SDL_GameControllerGetProduct
  .p2align 4
  .type SDL_GameControllerGetProduct, %function
#ifndef IMPLIB_EXPORT_SHIMS
  .hidden SDL_GameControllerGetProduct
#endif
SDL_GameControllerGetProduct:
  .cfi_startproc
  .cfi_def_cfa_offset 8  // Return address
  // Intel opt. manual says to
  // "make the fall-through code following a conditional branch be the likely target for a branch with a forward target"
  // to hint static predictor.
  cmpq $0, _libSDL2_so_tramp_table+1072(%rip)
  je 2f
1:
  jmp *_libSDL2_so_tramp_table+1072(%rip)
2:
  pushq $134
  .cfi_adjust_cfa_offset 8
  call _libSDL2_so_save_regs_and_resolve
  addq $8, %rsp
  .cfi_adjust_cfa_offset -8
  jmp 1b
  .cfi_endproc

/*
 * Copyright 2018-2022 Yury Gribov
 *
 * The MIT License (MIT)
 *
 * Use of this source code is governed by MIT license that can be
 * found in the LICENSE.txt file.
 */

  .globl SDL_GameControllerGetProductVersion
  .p2align 4
  .type SDL_GameControllerGetProductVersion, %function
#ifndef IMPLIB_EXPORT_SHIMS
  .hidden SDL_GameControllerGetProductVersion
#endif
SDL_GameControllerGetProductVersion:
  .cfi_startproc
  .cfi_def_cfa_offset 8  // Return address
  // Intel opt. manual says to
  // "make the fall-through code following a conditional branch be the likely target for a branch with a forward target"
  // to hint static predictor.
  cmpq $0, _libSDL2_so_tramp_table+1080(%rip)
  je 2f
1:
  jmp *_libSDL2_so_tramp_table+1080(%rip)
2:
  pushq $135
  .cfi_adjust_cfa_offset 8
  call _libSDL2_so_save_regs_and_resolve
  addq $8, %rsp
  .cfi_adjust_cfa_offset -8
  jmp 1b
  .cfi_endproc

/*
 * Copyright 2018-2022 Yury Gribov
 *
 * The MIT License (MIT)
 *
 * Use of this source code is governed by MIT license that can be
 * found in the LICENSE.txt file.
 */

  .globl SDL_GameControllerGetSensorData
  .p2align 4
  .type SDL_GameControllerGetSensorData, %function
#ifndef IMPLIB_EXPORT_SHIMS
  .hidden SDL_GameControllerGetSensorData
#endif
SDL_GameControllerGetSensorData:
  .cfi_startproc
  .cfi_def_cfa_offset 8  // Return address
  // Intel opt. manual says to
  // "make the fall-through code following a conditional branch be the likely target for a branch with a forward target"
  // to hint static predictor.
  cmpq $0, _libSDL2_so_tramp_table+1088(%rip)
  je 2f
1:
  jmp *_libSDL2_so_tramp_table+1088(%rip)
2:
  pushq $136
  .cfi_adjust_cfa_offset 8
  call _libSDL2_so_save_regs_and_resolve
  addq $8, %rsp
  .cfi_adjust_cfa_offset -8
  jmp 1b
  .cfi_endproc

/*
 * Copyright 2018-2022 Yury Gribov
 *
 * The MIT License (MIT)
 *
 * Use of this source code is governed by MIT license that can be
 * found in the LICENSE.txt file.
 */

  .globl SDL_GameControllerGetSensorDataRate
  .p2align 4
  .type SDL_GameControllerGetSensorDataRate, %function
#ifndef IMPLIB_EXPORT_SHIMS
  .hidden SDL_GameControllerGetSensorDataRate
#endif
SDL_GameControllerGetSensorDataRate:
  .cfi_startproc
  .cfi_def_cfa_offset 8  // Return address
  // Intel opt. manual says to
  // "make the fall-through code following a conditional branch be the likely target for a branch with a forward target"
  // to hint static predictor.
  cmpq $0, _libSDL2_so_tramp_table+1096(%rip)
  je 2f
1:
  jmp *_libSDL2_so_tramp_table+1096(%rip)
2:
  pushq $137
  .cfi_adjust_cfa_offset 8
  call _libSDL2_so_save_regs_and_resolve
  addq $8, %rsp
  .cfi_adjust_cfa_offset -8
  jmp 1b
  .cfi_endproc

/*
 * Copyright 2018-2022 Yury Gribov
 *
 * The MIT License (MIT)
 *
 * Use of this source code is governed by MIT license that can be
 * found in the LICENSE.txt file.
 */

  .globl SDL_GameControllerGetSensorDataWithTimestamp
  .p2align 4
  .type SDL_GameControllerGetSensorDataWithTimestamp, %function
#ifndef IMPLIB_EXPORT_SHIMS
  .hidden SDL_GameControllerGetSensorDataWithTimestamp
#endif
SDL_GameControllerGetSensorDataWithTimestamp:
  .cfi_startproc
  .cfi_def_cfa_offset 8  // Return address
  // Intel opt. manual says to
  // "make the fall-through code following a conditional branch be the likely target for a branch with a forward target"
  // to hint static predictor.
  cmpq $0, _libSDL2_so_tramp_table+1104(%rip)
  je 2f
1:
  jmp *_libSDL2_so_tramp_table+1104(%rip)
2:
  pushq $138
  .cfi_adjust_cfa_offset 8
  call _libSDL2_so_save_regs_and_resolve
  addq $8, %rsp
  .cfi_adjust_cfa_offset -8
  jmp 1b
  .cfi_endproc

/*
 * Copyright 2018-2022 Yury Gribov
 *
 * The MIT License (MIT)
 *
 * Use of this source code is governed by MIT license that can be
 * found in the LICENSE.txt file.
 */

  .globl SDL_GameControllerGetSerial
  .p2align 4
  .type SDL_GameControllerGetSerial, %function
#ifndef IMPLIB_EXPORT_SHIMS
  .hidden SDL_GameControllerGetSerial
#endif
SDL_GameControllerGetSerial:
  .cfi_startproc
  .cfi_def_cfa_offset 8  // Return address
  // Intel opt. manual says to
  // "make the fall-through code following a conditional branch be the likely target for a branch with a forward target"
  // to hint static predictor.
  cmpq $0, _libSDL2_so_tramp_table+1112(%rip)
  je 2f
1:
  jmp *_libSDL2_so_tramp_table+1112(%rip)
2:
  pushq $139
  .cfi_adjust_cfa_offset 8
  call _libSDL2_so_save_regs_and_resolve
  addq $8, %rsp
  .cfi_adjust_cfa_offset -8
  jmp 1b
  .cfi_endproc

/*
 * Copyright 2018-2022 Yury Gribov
 *
 * The MIT License (MIT)
 *
 * Use of this source code is governed by MIT license that can be
 * found in the LICENSE.txt file.
 */

  .globl SDL_GameControllerGetStringForAxis
  .p2align 4
  .type SDL_GameControllerGetStringForAxis, %function
#ifndef IMPLIB_EXPORT_SHIMS
  .hidden SDL_GameControllerGetStringForAxis
#endif
SDL_GameControllerGetStringForAxis:
  .cfi_startproc
  .cfi_def_cfa_offset 8  // Return address
  // Intel opt. manual says to
  // "make the fall-through code following a conditional branch be the likely target for a branch with a forward target"
  // to hint static predictor.
  cmpq $0, _libSDL2_so_tramp_table+1120(%rip)
  je 2f
1:
  jmp *_libSDL2_so_tramp_table+1120(%rip)
2:
  pushq $140
  .cfi_adjust_cfa_offset 8
  call _libSDL2_so_save_regs_and_resolve
  addq $8, %rsp
  .cfi_adjust_cfa_offset -8
  jmp 1b
  .cfi_endproc

/*
 * Copyright 2018-2022 Yury Gribov
 *
 * The MIT License (MIT)
 *
 * Use of this source code is governed by MIT license that can be
 * found in the LICENSE.txt file.
 */

  .globl SDL_GameControllerGetStringForButton
  .p2align 4
  .type SDL_GameControllerGetStringForButton, %function
#ifndef IMPLIB_EXPORT_SHIMS
  .hidden SDL_GameControllerGetStringForButton
#endif
SDL_GameControllerGetStringForButton:
  .cfi_startproc
  .cfi_def_cfa_offset 8  // Return address
  // Intel opt. manual says to
  // "make the fall-through code following a conditional branch be the likely target for a branch with a forward target"
  // to hint static predictor.
  cmpq $0, _libSDL2_so_tramp_table+1128(%rip)
  je 2f
1:
  jmp *_libSDL2_so_tramp_table+1128(%rip)
2:
  pushq $141
  .cfi_adjust_cfa_offset 8
  call _libSDL2_so_save_regs_and_resolve
  addq $8, %rsp
  .cfi_adjust_cfa_offset -8
  jmp 1b
  .cfi_endproc

/*
 * Copyright 2018-2022 Yury Gribov
 *
 * The MIT License (MIT)
 *
 * Use of this source code is governed by MIT license that can be
 * found in the LICENSE.txt file.
 */

  .globl SDL_GameControllerGetTouchpadFinger
  .p2align 4
  .type SDL_GameControllerGetTouchpadFinger, %function
#ifndef IMPLIB_EXPORT_SHIMS
  .hidden SDL_GameControllerGetTouchpadFinger
#endif
SDL_GameControllerGetTouchpadFinger:
  .cfi_startproc
  .cfi_def_cfa_offset 8  // Return address
  // Intel opt. manual says to
  // "make the fall-through code following a conditional branch be the likely target for a branch with a forward target"
  // to hint static predictor.
  cmpq $0, _libSDL2_so_tramp_table+1136(%rip)
  je 2f
1:
  jmp *_libSDL2_so_tramp_table+1136(%rip)
2:
  pushq $142
  .cfi_adjust_cfa_offset 8
  call _libSDL2_so_save_regs_and_resolve
  addq $8, %rsp
  .cfi_adjust_cfa_offset -8
  jmp 1b
  .cfi_endproc

/*
 * Copyright 2018-2022 Yury Gribov
 *
 * The MIT License (MIT)
 *
 * Use of this source code is governed by MIT license that can be
 * found in the LICENSE.txt file.
 */

  .globl SDL_GameControllerGetType
  .p2align 4
  .type SDL_GameControllerGetType, %function
#ifndef IMPLIB_EXPORT_SHIMS
  .hidden SDL_GameControllerGetType
#endif
SDL_GameControllerGetType:
  .cfi_startproc
  .cfi_def_cfa_offset 8  // Return address
  // Intel opt. manual says to
  // "make the fall-through code following a conditional branch be the likely target for a branch with a forward target"
  // to hint static predictor.
  cmpq $0, _libSDL2_so_tramp_table+1144(%rip)
  je 2f
1:
  jmp *_libSDL2_so_tramp_table+1144(%rip)
2:
  pushq $143
  .cfi_adjust_cfa_offset 8
  call _libSDL2_so_save_regs_and_resolve
  addq $8, %rsp
  .cfi_adjust_cfa_offset -8
  jmp 1b
  .cfi_endproc

/*
 * Copyright 2018-2022 Yury Gribov
 *
 * The MIT License (MIT)
 *
 * Use of this source code is governed by MIT license that can be
 * found in the LICENSE.txt file.
 */

  .globl SDL_GameControllerGetVendor
  .p2align 4
  .type SDL_GameControllerGetVendor, %function
#ifndef IMPLIB_EXPORT_SHIMS
  .hidden SDL_GameControllerGetVendor
#endif
SDL_GameControllerGetVendor:
  .cfi_startproc
  .cfi_def_cfa_offset 8  // Return address
  // Intel opt. manual says to
  // "make the fall-through code following a conditional branch be the likely target for a branch with a forward target"
  // to hint static predictor.
  cmpq $0, _libSDL2_so_tramp_table+1152(%rip)
  je 2f
1:
  jmp *_libSDL2_so_tramp_table+1152(%rip)
2:
  pushq $144
  .cfi_adjust_cfa_offset 8
  call _libSDL2_so_save_regs_and_resolve
  addq $8, %rsp
  .cfi_adjust_cfa_offset -8
  jmp 1b
  .cfi_endproc

/*
 * Copyright 2018-2022 Yury Gribov
 *
 * The MIT License (MIT)
 *
 * Use of this source code is governed by MIT license that can be
 * found in the LICENSE.txt file.
 */

  .globl SDL_GameControllerHasAxis
  .p2align 4
  .type SDL_GameControllerHasAxis, %function
#ifndef IMPLIB_EXPORT_SHIMS
  .hidden SDL_GameControllerHasAxis
#endif
SDL_GameControllerHasAxis:
  .cfi_startproc
  .cfi_def_cfa_offset 8  // Return address
  // Intel opt. manual says to
  // "make the fall-through code following a conditional branch be the likely target for a branch with a forward target"
  // to hint static predictor.
  cmpq $0, _libSDL2_so_tramp_table+1160(%rip)
  je 2f
1:
  jmp *_libSDL2_so_tramp_table+1160(%rip)
2:
  pushq $145
  .cfi_adjust_cfa_offset 8
  call _libSDL2_so_save_regs_and_resolve
  addq $8, %rsp
  .cfi_adjust_cfa_offset -8
  jmp 1b
  .cfi_endproc

/*
 * Copyright 2018-2022 Yury Gribov
 *
 * The MIT License (MIT)
 *
 * Use of this source code is governed by MIT license that can be
 * found in the LICENSE.txt file.
 */

  .globl SDL_GameControllerHasButton
  .p2align 4
  .type SDL_GameControllerHasButton, %function
#ifndef IMPLIB_EXPORT_SHIMS
  .hidden SDL_GameControllerHasButton
#endif
SDL_GameControllerHasButton:
  .cfi_startproc
  .cfi_def_cfa_offset 8  // Return address
  // Intel opt. manual says to
  // "make the fall-through code following a conditional branch be the likely target for a branch with a forward target"
  // to hint static predictor.
  cmpq $0, _libSDL2_so_tramp_table+1168(%rip)
  je 2f
1:
  jmp *_libSDL2_so_tramp_table+1168(%rip)
2:
  pushq $146
  .cfi_adjust_cfa_offset 8
  call _libSDL2_so_save_regs_and_resolve
  addq $8, %rsp
  .cfi_adjust_cfa_offset -8
  jmp 1b
  .cfi_endproc

/*
 * Copyright 2018-2022 Yury Gribov
 *
 * The MIT License (MIT)
 *
 * Use of this source code is governed by MIT license that can be
 * found in the LICENSE.txt file.
 */

  .globl SDL_GameControllerHasLED
  .p2align 4
  .type SDL_GameControllerHasLED, %function
#ifndef IMPLIB_EXPORT_SHIMS
  .hidden SDL_GameControllerHasLED
#endif
SDL_GameControllerHasLED:
  .cfi_startproc
  .cfi_def_cfa_offset 8  // Return address
  // Intel opt. manual says to
  // "make the fall-through code following a conditional branch be the likely target for a branch with a forward target"
  // to hint static predictor.
  cmpq $0, _libSDL2_so_tramp_table+1176(%rip)
  je 2f
1:
  jmp *_libSDL2_so_tramp_table+1176(%rip)
2:
  pushq $147
  .cfi_adjust_cfa_offset 8
  call _libSDL2_so_save_regs_and_resolve
  addq $8, %rsp
  .cfi_adjust_cfa_offset -8
  jmp 1b
  .cfi_endproc

/*
 * Copyright 2018-2022 Yury Gribov
 *
 * The MIT License (MIT)
 *
 * Use of this source code is governed by MIT license that can be
 * found in the LICENSE.txt file.
 */

  .globl SDL_GameControllerHasRumble
  .p2align 4
  .type SDL_GameControllerHasRumble, %function
#ifndef IMPLIB_EXPORT_SHIMS
  .hidden SDL_GameControllerHasRumble
#endif
SDL_GameControllerHasRumble:
  .cfi_startproc
  .cfi_def_cfa_offset 8  // Return address
  // Intel opt. manual says to
  // "make the fall-through code following a conditional branch be the likely target for a branch with a forward target"
  // to hint static predictor.
  cmpq $0, _libSDL2_so_tramp_table+1184(%rip)
  je 2f
1:
  jmp *_libSDL2_so_tramp_table+1184(%rip)
2:
  pushq $148
  .cfi_adjust_cfa_offset 8
  call _libSDL2_so_save_regs_and_resolve
  addq $8, %rsp
  .cfi_adjust_cfa_offset -8
  jmp 1b
  .cfi_endproc

/*
 * Copyright 2018-2022 Yury Gribov
 *
 * The MIT License (MIT)
 *
 * Use of this source code is governed by MIT license that can be
 * found in the LICENSE.txt file.
 */

  .globl SDL_GameControllerHasRumbleTriggers
  .p2align 4
  .type SDL_GameControllerHasRumbleTriggers, %function
#ifndef IMPLIB_EXPORT_SHIMS
  .hidden SDL_GameControllerHasRumbleTriggers
#endif
SDL_GameControllerHasRumbleTriggers:
  .cfi_startproc
  .cfi_def_cfa_offset 8  // Return address
  // Intel opt. manual says to
  // "make the fall-through code following a conditional branch be the likely target for a branch with a forward target"
  // to hint static predictor.
  cmpq $0, _libSDL2_so_tramp_table+1192(%rip)
  je 2f
1:
  jmp *_libSDL2_so_tramp_table+1192(%rip)
2:
  pushq $149
  .cfi_adjust_cfa_offset 8
  call _libSDL2_so_save_regs_and_resolve
  addq $8, %rsp
  .cfi_adjust_cfa_offset -8
  jmp 1b
  .cfi_endproc

/*
 * Copyright 2018-2022 Yury Gribov
 *
 * The MIT License (MIT)
 *
 * Use of this source code is governed by MIT license that can be
 * found in the LICENSE.txt file.
 */

  .globl SDL_GameControllerHasSensor
  .p2align 4
  .type SDL_GameControllerHasSensor, %function
#ifndef IMPLIB_EXPORT_SHIMS
  .hidden SDL_GameControllerHasSensor
#endif
SDL_GameControllerHasSensor:
  .cfi_startproc
  .cfi_def_cfa_offset 8  // Return address
  // Intel opt. manual says to
  // "make the fall-through code following a conditional branch be the likely target for a branch with a forward target"
  // to hint static predictor.
  cmpq $0, _libSDL2_so_tramp_table+1200(%rip)
  je 2f
1:
  jmp *_libSDL2_so_tramp_table+1200(%rip)
2:
  pushq $150
  .cfi_adjust_cfa_offset 8
  call _libSDL2_so_save_regs_and_resolve
  addq $8, %rsp
  .cfi_adjust_cfa_offset -8
  jmp 1b
  .cfi_endproc

/*
 * Copyright 2018-2022 Yury Gribov
 *
 * The MIT License (MIT)
 *
 * Use of this source code is governed by MIT license that can be
 * found in the LICENSE.txt file.
 */

  .globl SDL_GameControllerIsSensorEnabled
  .p2align 4
  .type SDL_GameControllerIsSensorEnabled, %function
#ifndef IMPLIB_EXPORT_SHIMS
  .hidden SDL_GameControllerIsSensorEnabled
#endif
SDL_GameControllerIsSensorEnabled:
  .cfi_startproc
  .cfi_def_cfa_offset 8  // Return address
  // Intel opt. manual says to
  // "make the fall-through code following a conditional branch be the likely target for a branch with a forward target"
  // to hint static predictor.
  cmpq $0, _libSDL2_so_tramp_table+1208(%rip)
  je 2f
1:
  jmp *_libSDL2_so_tramp_table+1208(%rip)
2:
  pushq $151
  .cfi_adjust_cfa_offset 8
  call _libSDL2_so_save_regs_and_resolve
  addq $8, %rsp
  .cfi_adjust_cfa_offset -8
  jmp 1b
  .cfi_endproc

/*
 * Copyright 2018-2022 Yury Gribov
 *
 * The MIT License (MIT)
 *
 * Use of this source code is governed by MIT license that can be
 * found in the LICENSE.txt file.
 */

  .globl SDL_GameControllerMapping
  .p2align 4
  .type SDL_GameControllerMapping, %function
#ifndef IMPLIB_EXPORT_SHIMS
  .hidden SDL_GameControllerMapping
#endif
SDL_GameControllerMapping:
  .cfi_startproc
  .cfi_def_cfa_offset 8  // Return address
  // Intel opt. manual says to
  // "make the fall-through code following a conditional branch be the likely target for a branch with a forward target"
  // to hint static predictor.
  cmpq $0, _libSDL2_so_tramp_table+1216(%rip)
  je 2f
1:
  jmp *_libSDL2_so_tramp_table+1216(%rip)
2:
  pushq $152
  .cfi_adjust_cfa_offset 8
  call _libSDL2_so_save_regs_and_resolve
  addq $8, %rsp
  .cfi_adjust_cfa_offset -8
  jmp 1b
  .cfi_endproc

/*
 * Copyright 2018-2022 Yury Gribov
 *
 * The MIT License (MIT)
 *
 * Use of this source code is governed by MIT license that can be
 * found in the LICENSE.txt file.
 */

  .globl SDL_GameControllerMappingForDeviceIndex
  .p2align 4
  .type SDL_GameControllerMappingForDeviceIndex, %function
#ifndef IMPLIB_EXPORT_SHIMS
  .hidden SDL_GameControllerMappingForDeviceIndex
#endif
SDL_GameControllerMappingForDeviceIndex:
  .cfi_startproc
  .cfi_def_cfa_offset 8  // Return address
  // Intel opt. manual says to
  // "make the fall-through code following a conditional branch be the likely target for a branch with a forward target"
  // to hint static predictor.
  cmpq $0, _libSDL2_so_tramp_table+1224(%rip)
  je 2f
1:
  jmp *_libSDL2_so_tramp_table+1224(%rip)
2:
  pushq $153
  .cfi_adjust_cfa_offset 8
  call _libSDL2_so_save_regs_and_resolve
  addq $8, %rsp
  .cfi_adjust_cfa_offset -8
  jmp 1b
  .cfi_endproc

/*
 * Copyright 2018-2022 Yury Gribov
 *
 * The MIT License (MIT)
 *
 * Use of this source code is governed by MIT license that can be
 * found in the LICENSE.txt file.
 */

  .globl SDL_GameControllerMappingForGUID
  .p2align 4
  .type SDL_GameControllerMappingForGUID, %function
#ifndef IMPLIB_EXPORT_SHIMS
  .hidden SDL_GameControllerMappingForGUID
#endif
SDL_GameControllerMappingForGUID:
  .cfi_startproc
  .cfi_def_cfa_offset 8  // Return address
  // Intel opt. manual says to
  // "make the fall-through code following a conditional branch be the likely target for a branch with a forward target"
  // to hint static predictor.
  cmpq $0, _libSDL2_so_tramp_table+1232(%rip)
  je 2f
1:
  jmp *_libSDL2_so_tramp_table+1232(%rip)
2:
  pushq $154
  .cfi_adjust_cfa_offset 8
  call _libSDL2_so_save_regs_and_resolve
  addq $8, %rsp
  .cfi_adjust_cfa_offset -8
  jmp 1b
  .cfi_endproc

/*
 * Copyright 2018-2022 Yury Gribov
 *
 * The MIT License (MIT)
 *
 * Use of this source code is governed by MIT license that can be
 * found in the LICENSE.txt file.
 */

  .globl SDL_GameControllerMappingForIndex
  .p2align 4
  .type SDL_GameControllerMappingForIndex, %function
#ifndef IMPLIB_EXPORT_SHIMS
  .hidden SDL_GameControllerMappingForIndex
#endif
SDL_GameControllerMappingForIndex:
  .cfi_startproc
  .cfi_def_cfa_offset 8  // Return address
  // Intel opt. manual says to
  // "make the fall-through code following a conditional branch be the likely target for a branch with a forward target"
  // to hint static predictor.
  cmpq $0, _libSDL2_so_tramp_table+1240(%rip)
  je 2f
1:
  jmp *_libSDL2_so_tramp_table+1240(%rip)
2:
  pushq $155
  .cfi_adjust_cfa_offset 8
  call _libSDL2_so_save_regs_and_resolve
  addq $8, %rsp
  .cfi_adjust_cfa_offset -8
  jmp 1b
  .cfi_endproc

/*
 * Copyright 2018-2022 Yury Gribov
 *
 * The MIT License (MIT)
 *
 * Use of this source code is governed by MIT license that can be
 * found in the LICENSE.txt file.
 */

  .globl SDL_GameControllerName
  .p2align 4
  .type SDL_GameControllerName, %function
#ifndef IMPLIB_EXPORT_SHIMS
  .hidden SDL_GameControllerName
#endif
SDL_GameControllerName:
  .cfi_startproc
  .cfi_def_cfa_offset 8  // Return address
  // Intel opt. manual says to
  // "make the fall-through code following a conditional branch be the likely target for a branch with a forward target"
  // to hint static predictor.
  cmpq $0, _libSDL2_so_tramp_table+1248(%rip)
  je 2f
1:
  jmp *_libSDL2_so_tramp_table+1248(%rip)
2:
  pushq $156
  .cfi_adjust_cfa_offset 8
  call _libSDL2_so_save_regs_and_resolve
  addq $8, %rsp
  .cfi_adjust_cfa_offset -8
  jmp 1b
  .cfi_endproc

/*
 * Copyright 2018-2022 Yury Gribov
 *
 * The MIT License (MIT)
 *
 * Use of this source code is governed by MIT license that can be
 * found in the LICENSE.txt file.
 */

  .globl SDL_GameControllerNameForIndex
  .p2align 4
  .type SDL_GameControllerNameForIndex, %function
#ifndef IMPLIB_EXPORT_SHIMS
  .hidden SDL_GameControllerNameForIndex
#endif
SDL_GameControllerNameForIndex:
  .cfi_startproc
  .cfi_def_cfa_offset 8  // Return address
  // Intel opt. manual says to
  // "make the fall-through code following a conditional branch be the likely target for a branch with a forward target"
  // to hint static predictor.
  cmpq $0, _libSDL2_so_tramp_table+1256(%rip)
  je 2f
1:
  jmp *_libSDL2_so_tramp_table+1256(%rip)
2:
  pushq $157
  .cfi_adjust_cfa_offset 8
  call _libSDL2_so_save_regs_and_resolve
  addq $8, %rsp
  .cfi_adjust_cfa_offset -8
  jmp 1b
  .cfi_endproc

/*
 * Copyright 2018-2022 Yury Gribov
 *
 * The MIT License (MIT)
 *
 * Use of this source code is governed by MIT license that can be
 * found in the LICENSE.txt file.
 */

  .globl SDL_GameControllerNumMappings
  .p2align 4
  .type SDL_GameControllerNumMappings, %function
#ifndef IMPLIB_EXPORT_SHIMS
  .hidden SDL_GameControllerNumMappings
#endif
SDL_GameControllerNumMappings:
  .cfi_startproc
  .cfi_def_cfa_offset 8  // Return address
  // Intel opt. manual says to
  // "make the fall-through code following a conditional branch be the likely target for a branch with a forward target"
  // to hint static predictor.
  cmpq $0, _libSDL2_so_tramp_table+1264(%rip)
  je 2f
1:
  jmp *_libSDL2_so_tramp_table+1264(%rip)
2:
  pushq $158
  .cfi_adjust_cfa_offset 8
  call _libSDL2_so_save_regs_and_resolve
  addq $8, %rsp
  .cfi_adjust_cfa_offset -8
  jmp 1b
  .cfi_endproc

/*
 * Copyright 2018-2022 Yury Gribov
 *
 * The MIT License (MIT)
 *
 * Use of this source code is governed by MIT license that can be
 * found in the LICENSE.txt file.
 */

  .globl SDL_GameControllerOpen
  .p2align 4
  .type SDL_GameControllerOpen, %function
#ifndef IMPLIB_EXPORT_SHIMS
  .hidden SDL_GameControllerOpen
#endif
SDL_GameControllerOpen:
  .cfi_startproc
  .cfi_def_cfa_offset 8  // Return address
  // Intel opt. manual says to
  // "make the fall-through code following a conditional branch be the likely target for a branch with a forward target"
  // to hint static predictor.
  cmpq $0, _libSDL2_so_tramp_table+1272(%rip)
  je 2f
1:
  jmp *_libSDL2_so_tramp_table+1272(%rip)
2:
  pushq $159
  .cfi_adjust_cfa_offset 8
  call _libSDL2_so_save_regs_and_resolve
  addq $8, %rsp
  .cfi_adjust_cfa_offset -8
  jmp 1b
  .cfi_endproc

/*
 * Copyright 2018-2022 Yury Gribov
 *
 * The MIT License (MIT)
 *
 * Use of this source code is governed by MIT license that can be
 * found in the LICENSE.txt file.
 */

  .globl SDL_GameControllerPath
  .p2align 4
  .type SDL_GameControllerPath, %function
#ifndef IMPLIB_EXPORT_SHIMS
  .hidden SDL_GameControllerPath
#endif
SDL_GameControllerPath:
  .cfi_startproc
  .cfi_def_cfa_offset 8  // Return address
  // Intel opt. manual says to
  // "make the fall-through code following a conditional branch be the likely target for a branch with a forward target"
  // to hint static predictor.
  cmpq $0, _libSDL2_so_tramp_table+1280(%rip)
  je 2f
1:
  jmp *_libSDL2_so_tramp_table+1280(%rip)
2:
  pushq $160
  .cfi_adjust_cfa_offset 8
  call _libSDL2_so_save_regs_and_resolve
  addq $8, %rsp
  .cfi_adjust_cfa_offset -8
  jmp 1b
  .cfi_endproc

/*
 * Copyright 2018-2022 Yury Gribov
 *
 * The MIT License (MIT)
 *
 * Use of this source code is governed by MIT license that can be
 * found in the LICENSE.txt file.
 */

  .globl SDL_GameControllerPathForIndex
  .p2align 4
  .type SDL_GameControllerPathForIndex, %function
#ifndef IMPLIB_EXPORT_SHIMS
  .hidden SDL_GameControllerPathForIndex
#endif
SDL_GameControllerPathForIndex:
  .cfi_startproc
  .cfi_def_cfa_offset 8  // Return address
  // Intel opt. manual says to
  // "make the fall-through code following a conditional branch be the likely target for a branch with a forward target"
  // to hint static predictor.
  cmpq $0, _libSDL2_so_tramp_table+1288(%rip)
  je 2f
1:
  jmp *_libSDL2_so_tramp_table+1288(%rip)
2:
  pushq $161
  .cfi_adjust_cfa_offset 8
  call _libSDL2_so_save_regs_and_resolve
  addq $8, %rsp
  .cfi_adjust_cfa_offset -8
  jmp 1b
  .cfi_endproc

/*
 * Copyright 2018-2022 Yury Gribov
 *
 * The MIT License (MIT)
 *
 * Use of this source code is governed by MIT license that can be
 * found in the LICENSE.txt file.
 */

  .globl SDL_GameControllerRumble
  .p2align 4
  .type SDL_GameControllerRumble, %function
#ifndef IMPLIB_EXPORT_SHIMS
  .hidden SDL_GameControllerRumble
#endif
SDL_GameControllerRumble:
  .cfi_startproc
  .cfi_def_cfa_offset 8  // Return address
  // Intel opt. manual says to
  // "make the fall-through code following a conditional branch be the likely target for a branch with a forward target"
  // to hint static predictor.
  cmpq $0, _libSDL2_so_tramp_table+1296(%rip)
  je 2f
1:
  jmp *_libSDL2_so_tramp_table+1296(%rip)
2:
  pushq $162
  .cfi_adjust_cfa_offset 8
  call _libSDL2_so_save_regs_and_resolve
  addq $8, %rsp
  .cfi_adjust_cfa_offset -8
  jmp 1b
  .cfi_endproc

/*
 * Copyright 2018-2022 Yury Gribov
 *
 * The MIT License (MIT)
 *
 * Use of this source code is governed by MIT license that can be
 * found in the LICENSE.txt file.
 */

  .globl SDL_GameControllerRumbleTriggers
  .p2align 4
  .type SDL_GameControllerRumbleTriggers, %function
#ifndef IMPLIB_EXPORT_SHIMS
  .hidden SDL_GameControllerRumbleTriggers
#endif
SDL_GameControllerRumbleTriggers:
  .cfi_startproc
  .cfi_def_cfa_offset 8  // Return address
  // Intel opt. manual says to
  // "make the fall-through code following a conditional branch be the likely target for a branch with a forward target"
  // to hint static predictor.
  cmpq $0, _libSDL2_so_tramp_table+1304(%rip)
  je 2f
1:
  jmp *_libSDL2_so_tramp_table+1304(%rip)
2:
  pushq $163
  .cfi_adjust_cfa_offset 8
  call _libSDL2_so_save_regs_and_resolve
  addq $8, %rsp
  .cfi_adjust_cfa_offset -8
  jmp 1b
  .cfi_endproc

/*
 * Copyright 2018-2022 Yury Gribov
 *
 * The MIT License (MIT)
 *
 * Use of this source code is governed by MIT license that can be
 * found in the LICENSE.txt file.
 */

  .globl SDL_GameControllerSendEffect
  .p2align 4
  .type SDL_GameControllerSendEffect, %function
#ifndef IMPLIB_EXPORT_SHIMS
  .hidden SDL_GameControllerSendEffect
#endif
SDL_GameControllerSendEffect:
  .cfi_startproc
  .cfi_def_cfa_offset 8  // Return address
  // Intel opt. manual says to
  // "make the fall-through code following a conditional branch be the likely target for a branch with a forward target"
  // to hint static predictor.
  cmpq $0, _libSDL2_so_tramp_table+1312(%rip)
  je 2f
1:
  jmp *_libSDL2_so_tramp_table+1312(%rip)
2:
  pushq $164
  .cfi_adjust_cfa_offset 8
  call _libSDL2_so_save_regs_and_resolve
  addq $8, %rsp
  .cfi_adjust_cfa_offset -8
  jmp 1b
  .cfi_endproc

/*
 * Copyright 2018-2022 Yury Gribov
 *
 * The MIT License (MIT)
 *
 * Use of this source code is governed by MIT license that can be
 * found in the LICENSE.txt file.
 */

  .globl SDL_GameControllerSetLED
  .p2align 4
  .type SDL_GameControllerSetLED, %function
#ifndef IMPLIB_EXPORT_SHIMS
  .hidden SDL_GameControllerSetLED
#endif
SDL_GameControllerSetLED:
  .cfi_startproc
  .cfi_def_cfa_offset 8  // Return address
  // Intel opt. manual says to
  // "make the fall-through code following a conditional branch be the likely target for a branch with a forward target"
  // to hint static predictor.
  cmpq $0, _libSDL2_so_tramp_table+1320(%rip)
  je 2f
1:
  jmp *_libSDL2_so_tramp_table+1320(%rip)
2:
  pushq $165
  .cfi_adjust_cfa_offset 8
  call _libSDL2_so_save_regs_and_resolve
  addq $8, %rsp
  .cfi_adjust_cfa_offset -8
  jmp 1b
  .cfi_endproc

/*
 * Copyright 2018-2022 Yury Gribov
 *
 * The MIT License (MIT)
 *
 * Use of this source code is governed by MIT license that can be
 * found in the LICENSE.txt file.
 */

  .globl SDL_GameControllerSetPlayerIndex
  .p2align 4
  .type SDL_GameControllerSetPlayerIndex, %function
#ifndef IMPLIB_EXPORT_SHIMS
  .hidden SDL_GameControllerSetPlayerIndex
#endif
SDL_GameControllerSetPlayerIndex:
  .cfi_startproc
  .cfi_def_cfa_offset 8  // Return address
  // Intel opt. manual says to
  // "make the fall-through code following a conditional branch be the likely target for a branch with a forward target"
  // to hint static predictor.
  cmpq $0, _libSDL2_so_tramp_table+1328(%rip)
  je 2f
1:
  jmp *_libSDL2_so_tramp_table+1328(%rip)
2:
  pushq $166
  .cfi_adjust_cfa_offset 8
  call _libSDL2_so_save_regs_and_resolve
  addq $8, %rsp
  .cfi_adjust_cfa_offset -8
  jmp 1b
  .cfi_endproc

/*
 * Copyright 2018-2022 Yury Gribov
 *
 * The MIT License (MIT)
 *
 * Use of this source code is governed by MIT license that can be
 * found in the LICENSE.txt file.
 */

  .globl SDL_GameControllerSetSensorEnabled
  .p2align 4
  .type SDL_GameControllerSetSensorEnabled, %function
#ifndef IMPLIB_EXPORT_SHIMS
  .hidden SDL_GameControllerSetSensorEnabled
#endif
SDL_GameControllerSetSensorEnabled:
  .cfi_startproc
  .cfi_def_cfa_offset 8  // Return address
  // Intel opt. manual says to
  // "make the fall-through code following a conditional branch be the likely target for a branch with a forward target"
  // to hint static predictor.
  cmpq $0, _libSDL2_so_tramp_table+1336(%rip)
  je 2f
1:
  jmp *_libSDL2_so_tramp_table+1336(%rip)
2:
  pushq $167
  .cfi_adjust_cfa_offset 8
  call _libSDL2_so_save_regs_and_resolve
  addq $8, %rsp
  .cfi_adjust_cfa_offset -8
  jmp 1b
  .cfi_endproc

/*
 * Copyright 2018-2022 Yury Gribov
 *
 * The MIT License (MIT)
 *
 * Use of this source code is governed by MIT license that can be
 * found in the LICENSE.txt file.
 */

  .globl SDL_GameControllerTypeForIndex
  .p2align 4
  .type SDL_GameControllerTypeForIndex, %function
#ifndef IMPLIB_EXPORT_SHIMS
  .hidden SDL_GameControllerTypeForIndex
#endif
SDL_GameControllerTypeForIndex:
  .cfi_startproc
  .cfi_def_cfa_offset 8  // Return address
  // Intel opt. manual says to
  // "make the fall-through code following a conditional branch be the likely target for a branch with a forward target"
  // to hint static predictor.
  cmpq $0, _libSDL2_so_tramp_table+1344(%rip)
  je 2f
1:
  jmp *_libSDL2_so_tramp_table+1344(%rip)
2:
  pushq $168
  .cfi_adjust_cfa_offset 8
  call _libSDL2_so_save_regs_and_resolve
  addq $8, %rsp
  .cfi_adjust_cfa_offset -8
  jmp 1b
  .cfi_endproc

/*
 * Copyright 2018-2022 Yury Gribov
 *
 * The MIT License (MIT)
 *
 * Use of this source code is governed by MIT license that can be
 * found in the LICENSE.txt file.
 */

  .globl SDL_GameControllerUpdate
  .p2align 4
  .type SDL_GameControllerUpdate, %function
#ifndef IMPLIB_EXPORT_SHIMS
  .hidden SDL_GameControllerUpdate
#endif
SDL_GameControllerUpdate:
  .cfi_startproc
  .cfi_def_cfa_offset 8  // Return address
  // Intel opt. manual says to
  // "make the fall-through code following a conditional branch be the likely target for a branch with a forward target"
  // to hint static predictor.
  cmpq $0, _libSDL2_so_tramp_table+1352(%rip)
  je 2f
1:
  jmp *_libSDL2_so_tramp_table+1352(%rip)
2:
  pushq $169
  .cfi_adjust_cfa_offset 8
  call _libSDL2_so_save_regs_and_resolve
  addq $8, %rsp
  .cfi_adjust_cfa_offset -8
  jmp 1b
  .cfi_endproc

/*
 * Copyright 2018-2022 Yury Gribov
 *
 * The MIT License (MIT)
 *
 * Use of this source code is governed by MIT license that can be
 * found in the LICENSE.txt file.
 */

  .globl SDL_GetAssertionHandler
  .p2align 4
  .type SDL_GetAssertionHandler, %function
#ifndef IMPLIB_EXPORT_SHIMS
  .hidden SDL_GetAssertionHandler
#endif
SDL_GetAssertionHandler:
  .cfi_startproc
  .cfi_def_cfa_offset 8  // Return address
  // Intel opt. manual says to
  // "make the fall-through code following a conditional branch be the likely target for a branch with a forward target"
  // to hint static predictor.
  cmpq $0, _libSDL2_so_tramp_table+1360(%rip)
  je 2f
1:
  jmp *_libSDL2_so_tramp_table+1360(%rip)
2:
  pushq $170
  .cfi_adjust_cfa_offset 8
  call _libSDL2_so_save_regs_and_resolve
  addq $8, %rsp
  .cfi_adjust_cfa_offset -8
  jmp 1b
  .cfi_endproc

/*
 * Copyright 2018-2022 Yury Gribov
 *
 * The MIT License (MIT)
 *
 * Use of this source code is governed by MIT license that can be
 * found in the LICENSE.txt file.
 */

  .globl SDL_GetAssertionReport
  .p2align 4
  .type SDL_GetAssertionReport, %function
#ifndef IMPLIB_EXPORT_SHIMS
  .hidden SDL_GetAssertionReport
#endif
SDL_GetAssertionReport:
  .cfi_startproc
  .cfi_def_cfa_offset 8  // Return address
  // Intel opt. manual says to
  // "make the fall-through code following a conditional branch be the likely target for a branch with a forward target"
  // to hint static predictor.
  cmpq $0, _libSDL2_so_tramp_table+1368(%rip)
  je 2f
1:
  jmp *_libSDL2_so_tramp_table+1368(%rip)
2:
  pushq $171
  .cfi_adjust_cfa_offset 8
  call _libSDL2_so_save_regs_and_resolve
  addq $8, %rsp
  .cfi_adjust_cfa_offset -8
  jmp 1b
  .cfi_endproc

/*
 * Copyright 2018-2022 Yury Gribov
 *
 * The MIT License (MIT)
 *
 * Use of this source code is governed by MIT license that can be
 * found in the LICENSE.txt file.
 */

  .globl SDL_GetAudioDeviceName
  .p2align 4
  .type SDL_GetAudioDeviceName, %function
#ifndef IMPLIB_EXPORT_SHIMS
  .hidden SDL_GetAudioDeviceName
#endif
SDL_GetAudioDeviceName:
  .cfi_startproc
  .cfi_def_cfa_offset 8  // Return address
  // Intel opt. manual says to
  // "make the fall-through code following a conditional branch be the likely target for a branch with a forward target"
  // to hint static predictor.
  cmpq $0, _libSDL2_so_tramp_table+1376(%rip)
  je 2f
1:
  jmp *_libSDL2_so_tramp_table+1376(%rip)
2:
  pushq $172
  .cfi_adjust_cfa_offset 8
  call _libSDL2_so_save_regs_and_resolve
  addq $8, %rsp
  .cfi_adjust_cfa_offset -8
  jmp 1b
  .cfi_endproc

/*
 * Copyright 2018-2022 Yury Gribov
 *
 * The MIT License (MIT)
 *
 * Use of this source code is governed by MIT license that can be
 * found in the LICENSE.txt file.
 */

  .globl SDL_GetAudioDeviceSpec
  .p2align 4
  .type SDL_GetAudioDeviceSpec, %function
#ifndef IMPLIB_EXPORT_SHIMS
  .hidden SDL_GetAudioDeviceSpec
#endif
SDL_GetAudioDeviceSpec:
  .cfi_startproc
  .cfi_def_cfa_offset 8  // Return address
  // Intel opt. manual says to
  // "make the fall-through code following a conditional branch be the likely target for a branch with a forward target"
  // to hint static predictor.
  cmpq $0, _libSDL2_so_tramp_table+1384(%rip)
  je 2f
1:
  jmp *_libSDL2_so_tramp_table+1384(%rip)
2:
  pushq $173
  .cfi_adjust_cfa_offset 8
  call _libSDL2_so_save_regs_and_resolve
  addq $8, %rsp
  .cfi_adjust_cfa_offset -8
  jmp 1b
  .cfi_endproc

/*
 * Copyright 2018-2022 Yury Gribov
 *
 * The MIT License (MIT)
 *
 * Use of this source code is governed by MIT license that can be
 * found in the LICENSE.txt file.
 */

  .globl SDL_GetAudioDeviceStatus
  .p2align 4
  .type SDL_GetAudioDeviceStatus, %function
#ifndef IMPLIB_EXPORT_SHIMS
  .hidden SDL_GetAudioDeviceStatus
#endif
SDL_GetAudioDeviceStatus:
  .cfi_startproc
  .cfi_def_cfa_offset 8  // Return address
  // Intel opt. manual says to
  // "make the fall-through code following a conditional branch be the likely target for a branch with a forward target"
  // to hint static predictor.
  cmpq $0, _libSDL2_so_tramp_table+1392(%rip)
  je 2f
1:
  jmp *_libSDL2_so_tramp_table+1392(%rip)
2:
  pushq $174
  .cfi_adjust_cfa_offset 8
  call _libSDL2_so_save_regs_and_resolve
  addq $8, %rsp
  .cfi_adjust_cfa_offset -8
  jmp 1b
  .cfi_endproc

/*
 * Copyright 2018-2022 Yury Gribov
 *
 * The MIT License (MIT)
 *
 * Use of this source code is governed by MIT license that can be
 * found in the LICENSE.txt file.
 */

  .globl SDL_GetAudioDriver
  .p2align 4
  .type SDL_GetAudioDriver, %function
#ifndef IMPLIB_EXPORT_SHIMS
  .hidden SDL_GetAudioDriver
#endif
SDL_GetAudioDriver:
  .cfi_startproc
  .cfi_def_cfa_offset 8  // Return address
  // Intel opt. manual says to
  // "make the fall-through code following a conditional branch be the likely target for a branch with a forward target"
  // to hint static predictor.
  cmpq $0, _libSDL2_so_tramp_table+1400(%rip)
  je 2f
1:
  jmp *_libSDL2_so_tramp_table+1400(%rip)
2:
  pushq $175
  .cfi_adjust_cfa_offset 8
  call _libSDL2_so_save_regs_and_resolve
  addq $8, %rsp
  .cfi_adjust_cfa_offset -8
  jmp 1b
  .cfi_endproc

/*
 * Copyright 2018-2022 Yury Gribov
 *
 * The MIT License (MIT)
 *
 * Use of this source code is governed by MIT license that can be
 * found in the LICENSE.txt file.
 */

  .globl SDL_GetAudioStatus
  .p2align 4
  .type SDL_GetAudioStatus, %function
#ifndef IMPLIB_EXPORT_SHIMS
  .hidden SDL_GetAudioStatus
#endif
SDL_GetAudioStatus:
  .cfi_startproc
  .cfi_def_cfa_offset 8  // Return address
  // Intel opt. manual says to
  // "make the fall-through code following a conditional branch be the likely target for a branch with a forward target"
  // to hint static predictor.
  cmpq $0, _libSDL2_so_tramp_table+1408(%rip)
  je 2f
1:
  jmp *_libSDL2_so_tramp_table+1408(%rip)
2:
  pushq $176
  .cfi_adjust_cfa_offset 8
  call _libSDL2_so_save_regs_and_resolve
  addq $8, %rsp
  .cfi_adjust_cfa_offset -8
  jmp 1b
  .cfi_endproc

/*
 * Copyright 2018-2022 Yury Gribov
 *
 * The MIT License (MIT)
 *
 * Use of this source code is governed by MIT license that can be
 * found in the LICENSE.txt file.
 */

  .globl SDL_GetBasePath
  .p2align 4
  .type SDL_GetBasePath, %function
#ifndef IMPLIB_EXPORT_SHIMS
  .hidden SDL_GetBasePath
#endif
SDL_GetBasePath:
  .cfi_startproc
  .cfi_def_cfa_offset 8  // Return address
  // Intel opt. manual says to
  // "make the fall-through code following a conditional branch be the likely target for a branch with a forward target"
  // to hint static predictor.
  cmpq $0, _libSDL2_so_tramp_table+1416(%rip)
  je 2f
1:
  jmp *_libSDL2_so_tramp_table+1416(%rip)
2:
  pushq $177
  .cfi_adjust_cfa_offset 8
  call _libSDL2_so_save_regs_and_resolve
  addq $8, %rsp
  .cfi_adjust_cfa_offset -8
  jmp 1b
  .cfi_endproc

/*
 * Copyright 2018-2022 Yury Gribov
 *
 * The MIT License (MIT)
 *
 * Use of this source code is governed by MIT license that can be
 * found in the LICENSE.txt file.
 */

  .globl SDL_GetCPUCacheLineSize
  .p2align 4
  .type SDL_GetCPUCacheLineSize, %function
#ifndef IMPLIB_EXPORT_SHIMS
  .hidden SDL_GetCPUCacheLineSize
#endif
SDL_GetCPUCacheLineSize:
  .cfi_startproc
  .cfi_def_cfa_offset 8  // Return address
  // Intel opt. manual says to
  // "make the fall-through code following a conditional branch be the likely target for a branch with a forward target"
  // to hint static predictor.
  cmpq $0, _libSDL2_so_tramp_table+1424(%rip)
  je 2f
1:
  jmp *_libSDL2_so_tramp_table+1424(%rip)
2:
  pushq $178
  .cfi_adjust_cfa_offset 8
  call _libSDL2_so_save_regs_and_resolve
  addq $8, %rsp
  .cfi_adjust_cfa_offset -8
  jmp 1b
  .cfi_endproc

/*
 * Copyright 2018-2022 Yury Gribov
 *
 * The MIT License (MIT)
 *
 * Use of this source code is governed by MIT license that can be
 * found in the LICENSE.txt file.
 */

  .globl SDL_GetCPUCount
  .p2align 4
  .type SDL_GetCPUCount, %function
#ifndef IMPLIB_EXPORT_SHIMS
  .hidden SDL_GetCPUCount
#endif
SDL_GetCPUCount:
  .cfi_startproc
  .cfi_def_cfa_offset 8  // Return address
  // Intel opt. manual says to
  // "make the fall-through code following a conditional branch be the likely target for a branch with a forward target"
  // to hint static predictor.
  cmpq $0, _libSDL2_so_tramp_table+1432(%rip)
  je 2f
1:
  jmp *_libSDL2_so_tramp_table+1432(%rip)
2:
  pushq $179
  .cfi_adjust_cfa_offset 8
  call _libSDL2_so_save_regs_and_resolve
  addq $8, %rsp
  .cfi_adjust_cfa_offset -8
  jmp 1b
  .cfi_endproc

/*
 * Copyright 2018-2022 Yury Gribov
 *
 * The MIT License (MIT)
 *
 * Use of this source code is governed by MIT license that can be
 * found in the LICENSE.txt file.
 */

  .globl SDL_GetClipRect
  .p2align 4
  .type SDL_GetClipRect, %function
#ifndef IMPLIB_EXPORT_SHIMS
  .hidden SDL_GetClipRect
#endif
SDL_GetClipRect:
  .cfi_startproc
  .cfi_def_cfa_offset 8  // Return address
  // Intel opt. manual says to
  // "make the fall-through code following a conditional branch be the likely target for a branch with a forward target"
  // to hint static predictor.
  cmpq $0, _libSDL2_so_tramp_table+1440(%rip)
  je 2f
1:
  jmp *_libSDL2_so_tramp_table+1440(%rip)
2:
  pushq $180
  .cfi_adjust_cfa_offset 8
  call _libSDL2_so_save_regs_and_resolve
  addq $8, %rsp
  .cfi_adjust_cfa_offset -8
  jmp 1b
  .cfi_endproc

/*
 * Copyright 2018-2022 Yury Gribov
 *
 * The MIT License (MIT)
 *
 * Use of this source code is governed by MIT license that can be
 * found in the LICENSE.txt file.
 */

  .globl SDL_GetClipboardText
  .p2align 4
  .type SDL_GetClipboardText, %function
#ifndef IMPLIB_EXPORT_SHIMS
  .hidden SDL_GetClipboardText
#endif
SDL_GetClipboardText:
  .cfi_startproc
  .cfi_def_cfa_offset 8  // Return address
  // Intel opt. manual says to
  // "make the fall-through code following a conditional branch be the likely target for a branch with a forward target"
  // to hint static predictor.
  cmpq $0, _libSDL2_so_tramp_table+1448(%rip)
  je 2f
1:
  jmp *_libSDL2_so_tramp_table+1448(%rip)
2:
  pushq $181
  .cfi_adjust_cfa_offset 8
  call _libSDL2_so_save_regs_and_resolve
  addq $8, %rsp
  .cfi_adjust_cfa_offset -8
  jmp 1b
  .cfi_endproc

/*
 * Copyright 2018-2022 Yury Gribov
 *
 * The MIT License (MIT)
 *
 * Use of this source code is governed by MIT license that can be
 * found in the LICENSE.txt file.
 */

  .globl SDL_GetClosestDisplayMode
  .p2align 4
  .type SDL_GetClosestDisplayMode, %function
#ifndef IMPLIB_EXPORT_SHIMS
  .hidden SDL_GetClosestDisplayMode
#endif
SDL_GetClosestDisplayMode:
  .cfi_startproc
  .cfi_def_cfa_offset 8  // Return address
  // Intel opt. manual says to
  // "make the fall-through code following a conditional branch be the likely target for a branch with a forward target"
  // to hint static predictor.
  cmpq $0, _libSDL2_so_tramp_table+1456(%rip)
  je 2f
1:
  jmp *_libSDL2_so_tramp_table+1456(%rip)
2:
  pushq $182
  .cfi_adjust_cfa_offset 8
  call _libSDL2_so_save_regs_and_resolve
  addq $8, %rsp
  .cfi_adjust_cfa_offset -8
  jmp 1b
  .cfi_endproc

/*
 * Copyright 2018-2022 Yury Gribov
 *
 * The MIT License (MIT)
 *
 * Use of this source code is governed by MIT license that can be
 * found in the LICENSE.txt file.
 */

  .globl SDL_GetColorKey
  .p2align 4
  .type SDL_GetColorKey, %function
#ifndef IMPLIB_EXPORT_SHIMS
  .hidden SDL_GetColorKey
#endif
SDL_GetColorKey:
  .cfi_startproc
  .cfi_def_cfa_offset 8  // Return address
  // Intel opt. manual says to
  // "make the fall-through code following a conditional branch be the likely target for a branch with a forward target"
  // to hint static predictor.
  cmpq $0, _libSDL2_so_tramp_table+1464(%rip)
  je 2f
1:
  jmp *_libSDL2_so_tramp_table+1464(%rip)
2:
  pushq $183
  .cfi_adjust_cfa_offset 8
  call _libSDL2_so_save_regs_and_resolve
  addq $8, %rsp
  .cfi_adjust_cfa_offset -8
  jmp 1b
  .cfi_endproc

/*
 * Copyright 2018-2022 Yury Gribov
 *
 * The MIT License (MIT)
 *
 * Use of this source code is governed by MIT license that can be
 * found in the LICENSE.txt file.
 */

  .globl SDL_GetCurrentAudioDriver
  .p2align 4
  .type SDL_GetCurrentAudioDriver, %function
#ifndef IMPLIB_EXPORT_SHIMS
  .hidden SDL_GetCurrentAudioDriver
#endif
SDL_GetCurrentAudioDriver:
  .cfi_startproc
  .cfi_def_cfa_offset 8  // Return address
  // Intel opt. manual says to
  // "make the fall-through code following a conditional branch be the likely target for a branch with a forward target"
  // to hint static predictor.
  cmpq $0, _libSDL2_so_tramp_table+1472(%rip)
  je 2f
1:
  jmp *_libSDL2_so_tramp_table+1472(%rip)
2:
  pushq $184
  .cfi_adjust_cfa_offset 8
  call _libSDL2_so_save_regs_and_resolve
  addq $8, %rsp
  .cfi_adjust_cfa_offset -8
  jmp 1b
  .cfi_endproc

/*
 * Copyright 2018-2022 Yury Gribov
 *
 * The MIT License (MIT)
 *
 * Use of this source code is governed by MIT license that can be
 * found in the LICENSE.txt file.
 */

  .globl SDL_GetCurrentDisplayMode
  .p2align 4
  .type SDL_GetCurrentDisplayMode, %function
#ifndef IMPLIB_EXPORT_SHIMS
  .hidden SDL_GetCurrentDisplayMode
#endif
SDL_GetCurrentDisplayMode:
  .cfi_startproc
  .cfi_def_cfa_offset 8  // Return address
  // Intel opt. manual says to
  // "make the fall-through code following a conditional branch be the likely target for a branch with a forward target"
  // to hint static predictor.
  cmpq $0, _libSDL2_so_tramp_table+1480(%rip)
  je 2f
1:
  jmp *_libSDL2_so_tramp_table+1480(%rip)
2:
  pushq $185
  .cfi_adjust_cfa_offset 8
  call _libSDL2_so_save_regs_and_resolve
  addq $8, %rsp
  .cfi_adjust_cfa_offset -8
  jmp 1b
  .cfi_endproc

/*
 * Copyright 2018-2022 Yury Gribov
 *
 * The MIT License (MIT)
 *
 * Use of this source code is governed by MIT license that can be
 * found in the LICENSE.txt file.
 */

  .globl SDL_GetCurrentVideoDriver
  .p2align 4
  .type SDL_GetCurrentVideoDriver, %function
#ifndef IMPLIB_EXPORT_SHIMS
  .hidden SDL_GetCurrentVideoDriver
#endif
SDL_GetCurrentVideoDriver:
  .cfi_startproc
  .cfi_def_cfa_offset 8  // Return address
  // Intel opt. manual says to
  // "make the fall-through code following a conditional branch be the likely target for a branch with a forward target"
  // to hint static predictor.
  cmpq $0, _libSDL2_so_tramp_table+1488(%rip)
  je 2f
1:
  jmp *_libSDL2_so_tramp_table+1488(%rip)
2:
  pushq $186
  .cfi_adjust_cfa_offset 8
  call _libSDL2_so_save_regs_and_resolve
  addq $8, %rsp
  .cfi_adjust_cfa_offset -8
  jmp 1b
  .cfi_endproc

/*
 * Copyright 2018-2022 Yury Gribov
 *
 * The MIT License (MIT)
 *
 * Use of this source code is governed by MIT license that can be
 * found in the LICENSE.txt file.
 */

  .globl SDL_GetCursor
  .p2align 4
  .type SDL_GetCursor, %function
#ifndef IMPLIB_EXPORT_SHIMS
  .hidden SDL_GetCursor
#endif
SDL_GetCursor:
  .cfi_startproc
  .cfi_def_cfa_offset 8  // Return address
  // Intel opt. manual says to
  // "make the fall-through code following a conditional branch be the likely target for a branch with a forward target"
  // to hint static predictor.
  cmpq $0, _libSDL2_so_tramp_table+1496(%rip)
  je 2f
1:
  jmp *_libSDL2_so_tramp_table+1496(%rip)
2:
  pushq $187
  .cfi_adjust_cfa_offset 8
  call _libSDL2_so_save_regs_and_resolve
  addq $8, %rsp
  .cfi_adjust_cfa_offset -8
  jmp 1b
  .cfi_endproc

/*
 * Copyright 2018-2022 Yury Gribov
 *
 * The MIT License (MIT)
 *
 * Use of this source code is governed by MIT license that can be
 * found in the LICENSE.txt file.
 */

  .globl SDL_GetDefaultAssertionHandler
  .p2align 4
  .type SDL_GetDefaultAssertionHandler, %function
#ifndef IMPLIB_EXPORT_SHIMS
  .hidden SDL_GetDefaultAssertionHandler
#endif
SDL_GetDefaultAssertionHandler:
  .cfi_startproc
  .cfi_def_cfa_offset 8  // Return address
  // Intel opt. manual says to
  // "make the fall-through code following a conditional branch be the likely target for a branch with a forward target"
  // to hint static predictor.
  cmpq $0, _libSDL2_so_tramp_table+1504(%rip)
  je 2f
1:
  jmp *_libSDL2_so_tramp_table+1504(%rip)
2:
  pushq $188
  .cfi_adjust_cfa_offset 8
  call _libSDL2_so_save_regs_and_resolve
  addq $8, %rsp
  .cfi_adjust_cfa_offset -8
  jmp 1b
  .cfi_endproc

/*
 * Copyright 2018-2022 Yury Gribov
 *
 * The MIT License (MIT)
 *
 * Use of this source code is governed by MIT license that can be
 * found in the LICENSE.txt file.
 */

  .globl SDL_GetDefaultAudioInfo
  .p2align 4
  .type SDL_GetDefaultAudioInfo, %function
#ifndef IMPLIB_EXPORT_SHIMS
  .hidden SDL_GetDefaultAudioInfo
#endif
SDL_GetDefaultAudioInfo:
  .cfi_startproc
  .cfi_def_cfa_offset 8  // Return address
  // Intel opt. manual says to
  // "make the fall-through code following a conditional branch be the likely target for a branch with a forward target"
  // to hint static predictor.
  cmpq $0, _libSDL2_so_tramp_table+1512(%rip)
  je 2f
1:
  jmp *_libSDL2_so_tramp_table+1512(%rip)
2:
  pushq $189
  .cfi_adjust_cfa_offset 8
  call _libSDL2_so_save_regs_and_resolve
  addq $8, %rsp
  .cfi_adjust_cfa_offset -8
  jmp 1b
  .cfi_endproc

/*
 * Copyright 2018-2022 Yury Gribov
 *
 * The MIT License (MIT)
 *
 * Use of this source code is governed by MIT license that can be
 * found in the LICENSE.txt file.
 */

  .globl SDL_GetDefaultCursor
  .p2align 4
  .type SDL_GetDefaultCursor, %function
#ifndef IMPLIB_EXPORT_SHIMS
  .hidden SDL_GetDefaultCursor
#endif
SDL_GetDefaultCursor:
  .cfi_startproc
  .cfi_def_cfa_offset 8  // Return address
  // Intel opt. manual says to
  // "make the fall-through code following a conditional branch be the likely target for a branch with a forward target"
  // to hint static predictor.
  cmpq $0, _libSDL2_so_tramp_table+1520(%rip)
  je 2f
1:
  jmp *_libSDL2_so_tramp_table+1520(%rip)
2:
  pushq $190
  .cfi_adjust_cfa_offset 8
  call _libSDL2_so_save_regs_and_resolve
  addq $8, %rsp
  .cfi_adjust_cfa_offset -8
  jmp 1b
  .cfi_endproc

/*
 * Copyright 2018-2022 Yury Gribov
 *
 * The MIT License (MIT)
 *
 * Use of this source code is governed by MIT license that can be
 * found in the LICENSE.txt file.
 */

  .globl SDL_GetDesktopDisplayMode
  .p2align 4
  .type SDL_GetDesktopDisplayMode, %function
#ifndef IMPLIB_EXPORT_SHIMS
  .hidden SDL_GetDesktopDisplayMode
#endif
SDL_GetDesktopDisplayMode:
  .cfi_startproc
  .cfi_def_cfa_offset 8  // Return address
  // Intel opt. manual says to
  // "make the fall-through code following a conditional branch be the likely target for a branch with a forward target"
  // to hint static predictor.
  cmpq $0, _libSDL2_so_tramp_table+1528(%rip)
  je 2f
1:
  jmp *_libSDL2_so_tramp_table+1528(%rip)
2:
  pushq $191
  .cfi_adjust_cfa_offset 8
  call _libSDL2_so_save_regs_and_resolve
  addq $8, %rsp
  .cfi_adjust_cfa_offset -8
  jmp 1b
  .cfi_endproc

/*
 * Copyright 2018-2022 Yury Gribov
 *
 * The MIT License (MIT)
 *
 * Use of this source code is governed by MIT license that can be
 * found in the LICENSE.txt file.
 */

  .globl SDL_GetDisplayBounds
  .p2align 4
  .type SDL_GetDisplayBounds, %function
#ifndef IMPLIB_EXPORT_SHIMS
  .hidden SDL_GetDisplayBounds
#endif
SDL_GetDisplayBounds:
  .cfi_startproc
  .cfi_def_cfa_offset 8  // Return address
  // Intel opt. manual says to
  // "make the fall-through code following a conditional branch be the likely target for a branch with a forward target"
  // to hint static predictor.
  cmpq $0, _libSDL2_so_tramp_table+1536(%rip)
  je 2f
1:
  jmp *_libSDL2_so_tramp_table+1536(%rip)
2:
  pushq $192
  .cfi_adjust_cfa_offset 8
  call _libSDL2_so_save_regs_and_resolve
  addq $8, %rsp
  .cfi_adjust_cfa_offset -8
  jmp 1b
  .cfi_endproc

/*
 * Copyright 2018-2022 Yury Gribov
 *
 * The MIT License (MIT)
 *
 * Use of this source code is governed by MIT license that can be
 * found in the LICENSE.txt file.
 */

  .globl SDL_GetDisplayDPI
  .p2align 4
  .type SDL_GetDisplayDPI, %function
#ifndef IMPLIB_EXPORT_SHIMS
  .hidden SDL_GetDisplayDPI
#endif
SDL_GetDisplayDPI:
  .cfi_startproc
  .cfi_def_cfa_offset 8  // Return address
  // Intel opt. manual says to
  // "make the fall-through code following a conditional branch be the likely target for a branch with a forward target"
  // to hint static predictor.
  cmpq $0, _libSDL2_so_tramp_table+1544(%rip)
  je 2f
1:
  jmp *_libSDL2_so_tramp_table+1544(%rip)
2:
  pushq $193
  .cfi_adjust_cfa_offset 8
  call _libSDL2_so_save_regs_and_resolve
  addq $8, %rsp
  .cfi_adjust_cfa_offset -8
  jmp 1b
  .cfi_endproc

/*
 * Copyright 2018-2022 Yury Gribov
 *
 * The MIT License (MIT)
 *
 * Use of this source code is governed by MIT license that can be
 * found in the LICENSE.txt file.
 */

  .globl SDL_GetDisplayMode
  .p2align 4
  .type SDL_GetDisplayMode, %function
#ifndef IMPLIB_EXPORT_SHIMS
  .hidden SDL_GetDisplayMode
#endif
SDL_GetDisplayMode:
  .cfi_startproc
  .cfi_def_cfa_offset 8  // Return address
  // Intel opt. manual says to
  // "make the fall-through code following a conditional branch be the likely target for a branch with a forward target"
  // to hint static predictor.
  cmpq $0, _libSDL2_so_tramp_table+1552(%rip)
  je 2f
1:
  jmp *_libSDL2_so_tramp_table+1552(%rip)
2:
  pushq $194
  .cfi_adjust_cfa_offset 8
  call _libSDL2_so_save_regs_and_resolve
  addq $8, %rsp
  .cfi_adjust_cfa_offset -8
  jmp 1b
  .cfi_endproc

/*
 * Copyright 2018-2022 Yury Gribov
 *
 * The MIT License (MIT)
 *
 * Use of this source code is governed by MIT license that can be
 * found in the LICENSE.txt file.
 */

  .globl SDL_GetDisplayName
  .p2align 4
  .type SDL_GetDisplayName, %function
#ifndef IMPLIB_EXPORT_SHIMS
  .hidden SDL_GetDisplayName
#endif
SDL_GetDisplayName:
  .cfi_startproc
  .cfi_def_cfa_offset 8  // Return address
  // Intel opt. manual says to
  // "make the fall-through code following a conditional branch be the likely target for a branch with a forward target"
  // to hint static predictor.
  cmpq $0, _libSDL2_so_tramp_table+1560(%rip)
  je 2f
1:
  jmp *_libSDL2_so_tramp_table+1560(%rip)
2:
  pushq $195
  .cfi_adjust_cfa_offset 8
  call _libSDL2_so_save_regs_and_resolve
  addq $8, %rsp
  .cfi_adjust_cfa_offset -8
  jmp 1b
  .cfi_endproc

/*
 * Copyright 2018-2022 Yury Gribov
 *
 * The MIT License (MIT)
 *
 * Use of this source code is governed by MIT license that can be
 * found in the LICENSE.txt file.
 */

  .globl SDL_GetDisplayOrientation
  .p2align 4
  .type SDL_GetDisplayOrientation, %function
#ifndef IMPLIB_EXPORT_SHIMS
  .hidden SDL_GetDisplayOrientation
#endif
SDL_GetDisplayOrientation:
  .cfi_startproc
  .cfi_def_cfa_offset 8  // Return address
  // Intel opt. manual says to
  // "make the fall-through code following a conditional branch be the likely target for a branch with a forward target"
  // to hint static predictor.
  cmpq $0, _libSDL2_so_tramp_table+1568(%rip)
  je 2f
1:
  jmp *_libSDL2_so_tramp_table+1568(%rip)
2:
  pushq $196
  .cfi_adjust_cfa_offset 8
  call _libSDL2_so_save_regs_and_resolve
  addq $8, %rsp
  .cfi_adjust_cfa_offset -8
  jmp 1b
  .cfi_endproc

/*
 * Copyright 2018-2022 Yury Gribov
 *
 * The MIT License (MIT)
 *
 * Use of this source code is governed by MIT license that can be
 * found in the LICENSE.txt file.
 */

  .globl SDL_GetDisplayUsableBounds
  .p2align 4
  .type SDL_GetDisplayUsableBounds, %function
#ifndef IMPLIB_EXPORT_SHIMS
  .hidden SDL_GetDisplayUsableBounds
#endif
SDL_GetDisplayUsableBounds:
  .cfi_startproc
  .cfi_def_cfa_offset 8  // Return address
  // Intel opt. manual says to
  // "make the fall-through code following a conditional branch be the likely target for a branch with a forward target"
  // to hint static predictor.
  cmpq $0, _libSDL2_so_tramp_table+1576(%rip)
  je 2f
1:
  jmp *_libSDL2_so_tramp_table+1576(%rip)
2:
  pushq $197
  .cfi_adjust_cfa_offset 8
  call _libSDL2_so_save_regs_and_resolve
  addq $8, %rsp
  .cfi_adjust_cfa_offset -8
  jmp 1b
  .cfi_endproc

/*
 * Copyright 2018-2022 Yury Gribov
 *
 * The MIT License (MIT)
 *
 * Use of this source code is governed by MIT license that can be
 * found in the LICENSE.txt file.
 */

  .globl SDL_GetError
  .p2align 4
  .type SDL_GetError, %function
#ifndef IMPLIB_EXPORT_SHIMS
  .hidden SDL_GetError
#endif
SDL_GetError:
  .cfi_startproc
  .cfi_def_cfa_offset 8  // Return address
  // Intel opt. manual says to
  // "make the fall-through code following a conditional branch be the likely target for a branch with a forward target"
  // to hint static predictor.
  cmpq $0, _libSDL2_so_tramp_table+1584(%rip)
  je 2f
1:
  jmp *_libSDL2_so_tramp_table+1584(%rip)
2:
  pushq $198
  .cfi_adjust_cfa_offset 8
  call _libSDL2_so_save_regs_and_resolve
  addq $8, %rsp
  .cfi_adjust_cfa_offset -8
  jmp 1b
  .cfi_endproc

/*
 * Copyright 2018-2022 Yury Gribov
 *
 * The MIT License (MIT)
 *
 * Use of this source code is governed by MIT license that can be
 * found in the LICENSE.txt file.
 */

  .globl SDL_GetErrorMsg
  .p2align 4
  .type SDL_GetErrorMsg, %function
#ifndef IMPLIB_EXPORT_SHIMS
  .hidden SDL_GetErrorMsg
#endif
SDL_GetErrorMsg:
  .cfi_startproc
  .cfi_def_cfa_offset 8  // Return address
  // Intel opt. manual says to
  // "make the fall-through code following a conditional branch be the likely target for a branch with a forward target"
  // to hint static predictor.
  cmpq $0, _libSDL2_so_tramp_table+1592(%rip)
  je 2f
1:
  jmp *_libSDL2_so_tramp_table+1592(%rip)
2:
  pushq $199
  .cfi_adjust_cfa_offset 8
  call _libSDL2_so_save_regs_and_resolve
  addq $8, %rsp
  .cfi_adjust_cfa_offset -8
  jmp 1b
  .cfi_endproc

/*
 * Copyright 2018-2022 Yury Gribov
 *
 * The MIT License (MIT)
 *
 * Use of this source code is governed by MIT license that can be
 * found in the LICENSE.txt file.
 */

  .globl SDL_GetEventFilter
  .p2align 4
  .type SDL_GetEventFilter, %function
#ifndef IMPLIB_EXPORT_SHIMS
  .hidden SDL_GetEventFilter
#endif
SDL_GetEventFilter:
  .cfi_startproc
  .cfi_def_cfa_offset 8  // Return address
  // Intel opt. manual says to
  // "make the fall-through code following a conditional branch be the likely target for a branch with a forward target"
  // to hint static predictor.
  cmpq $0, _libSDL2_so_tramp_table+1600(%rip)
  je 2f
1:
  jmp *_libSDL2_so_tramp_table+1600(%rip)
2:
  pushq $200
  .cfi_adjust_cfa_offset 8
  call _libSDL2_so_save_regs_and_resolve
  addq $8, %rsp
  .cfi_adjust_cfa_offset -8
  jmp 1b
  .cfi_endproc

/*
 * Copyright 2018-2022 Yury Gribov
 *
 * The MIT License (MIT)
 *
 * Use of this source code is governed by MIT license that can be
 * found in the LICENSE.txt file.
 */

  .globl SDL_GetGlobalMouseState
  .p2align 4
  .type SDL_GetGlobalMouseState, %function
#ifndef IMPLIB_EXPORT_SHIMS
  .hidden SDL_GetGlobalMouseState
#endif
SDL_GetGlobalMouseState:
  .cfi_startproc
  .cfi_def_cfa_offset 8  // Return address
  // Intel opt. manual says to
  // "make the fall-through code following a conditional branch be the likely target for a branch with a forward target"
  // to hint static predictor.
  cmpq $0, _libSDL2_so_tramp_table+1608(%rip)
  je 2f
1:
  jmp *_libSDL2_so_tramp_table+1608(%rip)
2:
  pushq $201
  .cfi_adjust_cfa_offset 8
  call _libSDL2_so_save_regs_and_resolve
  addq $8, %rsp
  .cfi_adjust_cfa_offset -8
  jmp 1b
  .cfi_endproc

/*
 * Copyright 2018-2022 Yury Gribov
 *
 * The MIT License (MIT)
 *
 * Use of this source code is governed by MIT license that can be
 * found in the LICENSE.txt file.
 */

  .globl SDL_GetGrabbedWindow
  .p2align 4
  .type SDL_GetGrabbedWindow, %function
#ifndef IMPLIB_EXPORT_SHIMS
  .hidden SDL_GetGrabbedWindow
#endif
SDL_GetGrabbedWindow:
  .cfi_startproc
  .cfi_def_cfa_offset 8  // Return address
  // Intel opt. manual says to
  // "make the fall-through code following a conditional branch be the likely target for a branch with a forward target"
  // to hint static predictor.
  cmpq $0, _libSDL2_so_tramp_table+1616(%rip)
  je 2f
1:
  jmp *_libSDL2_so_tramp_table+1616(%rip)
2:
  pushq $202
  .cfi_adjust_cfa_offset 8
  call _libSDL2_so_save_regs_and_resolve
  addq $8, %rsp
  .cfi_adjust_cfa_offset -8
  jmp 1b
  .cfi_endproc

/*
 * Copyright 2018-2022 Yury Gribov
 *
 * The MIT License (MIT)
 *
 * Use of this source code is governed by MIT license that can be
 * found in the LICENSE.txt file.
 */

  .globl SDL_GetHint
  .p2align 4
  .type SDL_GetHint, %function
#ifndef IMPLIB_EXPORT_SHIMS
  .hidden SDL_GetHint
#endif
SDL_GetHint:
  .cfi_startproc
  .cfi_def_cfa_offset 8  // Return address
  // Intel opt. manual says to
  // "make the fall-through code following a conditional branch be the likely target for a branch with a forward target"
  // to hint static predictor.
  cmpq $0, _libSDL2_so_tramp_table+1624(%rip)
  je 2f
1:
  jmp *_libSDL2_so_tramp_table+1624(%rip)
2:
  pushq $203
  .cfi_adjust_cfa_offset 8
  call _libSDL2_so_save_regs_and_resolve
  addq $8, %rsp
  .cfi_adjust_cfa_offset -8
  jmp 1b
  .cfi_endproc

/*
 * Copyright 2018-2022 Yury Gribov
 *
 * The MIT License (MIT)
 *
 * Use of this source code is governed by MIT license that can be
 * found in the LICENSE.txt file.
 */

  .globl SDL_GetHintBoolean
  .p2align 4
  .type SDL_GetHintBoolean, %function
#ifndef IMPLIB_EXPORT_SHIMS
  .hidden SDL_GetHintBoolean
#endif
SDL_GetHintBoolean:
  .cfi_startproc
  .cfi_def_cfa_offset 8  // Return address
  // Intel opt. manual says to
  // "make the fall-through code following a conditional branch be the likely target for a branch with a forward target"
  // to hint static predictor.
  cmpq $0, _libSDL2_so_tramp_table+1632(%rip)
  je 2f
1:
  jmp *_libSDL2_so_tramp_table+1632(%rip)
2:
  pushq $204
  .cfi_adjust_cfa_offset 8
  call _libSDL2_so_save_regs_and_resolve
  addq $8, %rsp
  .cfi_adjust_cfa_offset -8
  jmp 1b
  .cfi_endproc

/*
 * Copyright 2018-2022 Yury Gribov
 *
 * The MIT License (MIT)
 *
 * Use of this source code is governed by MIT license that can be
 * found in the LICENSE.txt file.
 */

  .globl SDL_GetJoystickGUIDInfo
  .p2align 4
  .type SDL_GetJoystickGUIDInfo, %function
#ifndef IMPLIB_EXPORT_SHIMS
  .hidden SDL_GetJoystickGUIDInfo
#endif
SDL_GetJoystickGUIDInfo:
  .cfi_startproc
  .cfi_def_cfa_offset 8  // Return address
  // Intel opt. manual says to
  // "make the fall-through code following a conditional branch be the likely target for a branch with a forward target"
  // to hint static predictor.
  cmpq $0, _libSDL2_so_tramp_table+1640(%rip)
  je 2f
1:
  jmp *_libSDL2_so_tramp_table+1640(%rip)
2:
  pushq $205
  .cfi_adjust_cfa_offset 8
  call _libSDL2_so_save_regs_and_resolve
  addq $8, %rsp
  .cfi_adjust_cfa_offset -8
  jmp 1b
  .cfi_endproc

/*
 * Copyright 2018-2022 Yury Gribov
 *
 * The MIT License (MIT)
 *
 * Use of this source code is governed by MIT license that can be
 * found in the LICENSE.txt file.
 */

  .globl SDL_GetKeyFromName
  .p2align 4
  .type SDL_GetKeyFromName, %function
#ifndef IMPLIB_EXPORT_SHIMS
  .hidden SDL_GetKeyFromName
#endif
SDL_GetKeyFromName:
  .cfi_startproc
  .cfi_def_cfa_offset 8  // Return address
  // Intel opt. manual says to
  // "make the fall-through code following a conditional branch be the likely target for a branch with a forward target"
  // to hint static predictor.
  cmpq $0, _libSDL2_so_tramp_table+1648(%rip)
  je 2f
1:
  jmp *_libSDL2_so_tramp_table+1648(%rip)
2:
  pushq $206
  .cfi_adjust_cfa_offset 8
  call _libSDL2_so_save_regs_and_resolve
  addq $8, %rsp
  .cfi_adjust_cfa_offset -8
  jmp 1b
  .cfi_endproc

/*
 * Copyright 2018-2022 Yury Gribov
 *
 * The MIT License (MIT)
 *
 * Use of this source code is governed by MIT license that can be
 * found in the LICENSE.txt file.
 */

  .globl SDL_GetKeyFromScancode
  .p2align 4
  .type SDL_GetKeyFromScancode, %function
#ifndef IMPLIB_EXPORT_SHIMS
  .hidden SDL_GetKeyFromScancode
#endif
SDL_GetKeyFromScancode:
  .cfi_startproc
  .cfi_def_cfa_offset 8  // Return address
  // Intel opt. manual says to
  // "make the fall-through code following a conditional branch be the likely target for a branch with a forward target"
  // to hint static predictor.
  cmpq $0, _libSDL2_so_tramp_table+1656(%rip)
  je 2f
1:
  jmp *_libSDL2_so_tramp_table+1656(%rip)
2:
  pushq $207
  .cfi_adjust_cfa_offset 8
  call _libSDL2_so_save_regs_and_resolve
  addq $8, %rsp
  .cfi_adjust_cfa_offset -8
  jmp 1b
  .cfi_endproc

/*
 * Copyright 2018-2022 Yury Gribov
 *
 * The MIT License (MIT)
 *
 * Use of this source code is governed by MIT license that can be
 * found in the LICENSE.txt file.
 */

  .globl SDL_GetKeyName
  .p2align 4
  .type SDL_GetKeyName, %function
#ifndef IMPLIB_EXPORT_SHIMS
  .hidden SDL_GetKeyName
#endif
SDL_GetKeyName:
  .cfi_startproc
  .cfi_def_cfa_offset 8  // Return address
  // Intel opt. manual says to
  // "make the fall-through code following a conditional branch be the likely target for a branch with a forward target"
  // to hint static predictor.
  cmpq $0, _libSDL2_so_tramp_table+1664(%rip)
  je 2f
1:
  jmp *_libSDL2_so_tramp_table+1664(%rip)
2:
  pushq $208
  .cfi_adjust_cfa_offset 8
  call _libSDL2_so_save_regs_and_resolve
  addq $8, %rsp
  .cfi_adjust_cfa_offset -8
  jmp 1b
  .cfi_endproc

/*
 * Copyright 2018-2022 Yury Gribov
 *
 * The MIT License (MIT)
 *
 * Use of this source code is governed by MIT license that can be
 * found in the LICENSE.txt file.
 */

  .globl SDL_GetKeyboardFocus
  .p2align 4
  .type SDL_GetKeyboardFocus, %function
#ifndef IMPLIB_EXPORT_SHIMS
  .hidden SDL_GetKeyboardFocus
#endif
SDL_GetKeyboardFocus:
  .cfi_startproc
  .cfi_def_cfa_offset 8  // Return address
  // Intel opt. manual says to
  // "make the fall-through code following a conditional branch be the likely target for a branch with a forward target"
  // to hint static predictor.
  cmpq $0, _libSDL2_so_tramp_table+1672(%rip)
  je 2f
1:
  jmp *_libSDL2_so_tramp_table+1672(%rip)
2:
  pushq $209
  .cfi_adjust_cfa_offset 8
  call _libSDL2_so_save_regs_and_resolve
  addq $8, %rsp
  .cfi_adjust_cfa_offset -8
  jmp 1b
  .cfi_endproc

/*
 * Copyright 2018-2022 Yury Gribov
 *
 * The MIT License (MIT)
 *
 * Use of this source code is governed by MIT license that can be
 * found in the LICENSE.txt file.
 */

  .globl SDL_GetKeyboardState
  .p2align 4
  .type SDL_GetKeyboardState, %function
#ifndef IMPLIB_EXPORT_SHIMS
  .hidden SDL_GetKeyboardState
#endif
SDL_GetKeyboardState:
  .cfi_startproc
  .cfi_def_cfa_offset 8  // Return address
  // Intel opt. manual says to
  // "make the fall-through code following a conditional branch be the likely target for a branch with a forward target"
  // to hint static predictor.
  cmpq $0, _libSDL2_so_tramp_table+1680(%rip)
  je 2f
1:
  jmp *_libSDL2_so_tramp_table+1680(%rip)
2:
  pushq $210
  .cfi_adjust_cfa_offset 8
  call _libSDL2_so_save_regs_and_resolve
  addq $8, %rsp
  .cfi_adjust_cfa_offset -8
  jmp 1b
  .cfi_endproc

/*
 * Copyright 2018-2022 Yury Gribov
 *
 * The MIT License (MIT)
 *
 * Use of this source code is governed by MIT license that can be
 * found in the LICENSE.txt file.
 */

  .globl SDL_GetMemoryFunctions
  .p2align 4
  .type SDL_GetMemoryFunctions, %function
#ifndef IMPLIB_EXPORT_SHIMS
  .hidden SDL_GetMemoryFunctions
#endif
SDL_GetMemoryFunctions:
  .cfi_startproc
  .cfi_def_cfa_offset 8  // Return address
  // Intel opt. manual says to
  // "make the fall-through code following a conditional branch be the likely target for a branch with a forward target"
  // to hint static predictor.
  cmpq $0, _libSDL2_so_tramp_table+1688(%rip)
  je 2f
1:
  jmp *_libSDL2_so_tramp_table+1688(%rip)
2:
  pushq $211
  .cfi_adjust_cfa_offset 8
  call _libSDL2_so_save_regs_and_resolve
  addq $8, %rsp
  .cfi_adjust_cfa_offset -8
  jmp 1b
  .cfi_endproc

/*
 * Copyright 2018-2022 Yury Gribov
 *
 * The MIT License (MIT)
 *
 * Use of this source code is governed by MIT license that can be
 * found in the LICENSE.txt file.
 */

  .globl SDL_GetModState
  .p2align 4
  .type SDL_GetModState, %function
#ifndef IMPLIB_EXPORT_SHIMS
  .hidden SDL_GetModState
#endif
SDL_GetModState:
  .cfi_startproc
  .cfi_def_cfa_offset 8  // Return address
  // Intel opt. manual says to
  // "make the fall-through code following a conditional branch be the likely target for a branch with a forward target"
  // to hint static predictor.
  cmpq $0, _libSDL2_so_tramp_table+1696(%rip)
  je 2f
1:
  jmp *_libSDL2_so_tramp_table+1696(%rip)
2:
  pushq $212
  .cfi_adjust_cfa_offset 8
  call _libSDL2_so_save_regs_and_resolve
  addq $8, %rsp
  .cfi_adjust_cfa_offset -8
  jmp 1b
  .cfi_endproc

/*
 * Copyright 2018-2022 Yury Gribov
 *
 * The MIT License (MIT)
 *
 * Use of this source code is governed by MIT license that can be
 * found in the LICENSE.txt file.
 */

  .globl SDL_GetMouseFocus
  .p2align 4
  .type SDL_GetMouseFocus, %function
#ifndef IMPLIB_EXPORT_SHIMS
  .hidden SDL_GetMouseFocus
#endif
SDL_GetMouseFocus:
  .cfi_startproc
  .cfi_def_cfa_offset 8  // Return address
  // Intel opt. manual says to
  // "make the fall-through code following a conditional branch be the likely target for a branch with a forward target"
  // to hint static predictor.
  cmpq $0, _libSDL2_so_tramp_table+1704(%rip)
  je 2f
1:
  jmp *_libSDL2_so_tramp_table+1704(%rip)
2:
  pushq $213
  .cfi_adjust_cfa_offset 8
  call _libSDL2_so_save_regs_and_resolve
  addq $8, %rsp
  .cfi_adjust_cfa_offset -8
  jmp 1b
  .cfi_endproc

/*
 * Copyright 2018-2022 Yury Gribov
 *
 * The MIT License (MIT)
 *
 * Use of this source code is governed by MIT license that can be
 * found in the LICENSE.txt file.
 */

  .globl SDL_GetMouseState
  .p2align 4
  .type SDL_GetMouseState, %function
#ifndef IMPLIB_EXPORT_SHIMS
  .hidden SDL_GetMouseState
#endif
SDL_GetMouseState:
  .cfi_startproc
  .cfi_def_cfa_offset 8  // Return address
  // Intel opt. manual says to
  // "make the fall-through code following a conditional branch be the likely target for a branch with a forward target"
  // to hint static predictor.
  cmpq $0, _libSDL2_so_tramp_table+1712(%rip)
  je 2f
1:
  jmp *_libSDL2_so_tramp_table+1712(%rip)
2:
  pushq $214
  .cfi_adjust_cfa_offset 8
  call _libSDL2_so_save_regs_and_resolve
  addq $8, %rsp
  .cfi_adjust_cfa_offset -8
  jmp 1b
  .cfi_endproc

/*
 * Copyright 2018-2022 Yury Gribov
 *
 * The MIT License (MIT)
 *
 * Use of this source code is governed by MIT license that can be
 * found in the LICENSE.txt file.
 */

  .globl SDL_GetNumAllocations
  .p2align 4
  .type SDL_GetNumAllocations, %function
#ifndef IMPLIB_EXPORT_SHIMS
  .hidden SDL_GetNumAllocations
#endif
SDL_GetNumAllocations:
  .cfi_startproc
  .cfi_def_cfa_offset 8  // Return address
  // Intel opt. manual says to
  // "make the fall-through code following a conditional branch be the likely target for a branch with a forward target"
  // to hint static predictor.
  cmpq $0, _libSDL2_so_tramp_table+1720(%rip)
  je 2f
1:
  jmp *_libSDL2_so_tramp_table+1720(%rip)
2:
  pushq $215
  .cfi_adjust_cfa_offset 8
  call _libSDL2_so_save_regs_and_resolve
  addq $8, %rsp
  .cfi_adjust_cfa_offset -8
  jmp 1b
  .cfi_endproc

/*
 * Copyright 2018-2022 Yury Gribov
 *
 * The MIT License (MIT)
 *
 * Use of this source code is governed by MIT license that can be
 * found in the LICENSE.txt file.
 */

  .globl SDL_GetNumAudioDevices
  .p2align 4
  .type SDL_GetNumAudioDevices, %function
#ifndef IMPLIB_EXPORT_SHIMS
  .hidden SDL_GetNumAudioDevices
#endif
SDL_GetNumAudioDevices:
  .cfi_startproc
  .cfi_def_cfa_offset 8  // Return address
  // Intel opt. manual says to
  // "make the fall-through code following a conditional branch be the likely target for a branch with a forward target"
  // to hint static predictor.
  cmpq $0, _libSDL2_so_tramp_table+1728(%rip)
  je 2f
1:
  jmp *_libSDL2_so_tramp_table+1728(%rip)
2:
  pushq $216
  .cfi_adjust_cfa_offset 8
  call _libSDL2_so_save_regs_and_resolve
  addq $8, %rsp
  .cfi_adjust_cfa_offset -8
  jmp 1b
  .cfi_endproc

/*
 * Copyright 2018-2022 Yury Gribov
 *
 * The MIT License (MIT)
 *
 * Use of this source code is governed by MIT license that can be
 * found in the LICENSE.txt file.
 */

  .globl SDL_GetNumAudioDrivers
  .p2align 4
  .type SDL_GetNumAudioDrivers, %function
#ifndef IMPLIB_EXPORT_SHIMS
  .hidden SDL_GetNumAudioDrivers
#endif
SDL_GetNumAudioDrivers:
  .cfi_startproc
  .cfi_def_cfa_offset 8  // Return address
  // Intel opt. manual says to
  // "make the fall-through code following a conditional branch be the likely target for a branch with a forward target"
  // to hint static predictor.
  cmpq $0, _libSDL2_so_tramp_table+1736(%rip)
  je 2f
1:
  jmp *_libSDL2_so_tramp_table+1736(%rip)
2:
  pushq $217
  .cfi_adjust_cfa_offset 8
  call _libSDL2_so_save_regs_and_resolve
  addq $8, %rsp
  .cfi_adjust_cfa_offset -8
  jmp 1b
  .cfi_endproc

/*
 * Copyright 2018-2022 Yury Gribov
 *
 * The MIT License (MIT)
 *
 * Use of this source code is governed by MIT license that can be
 * found in the LICENSE.txt file.
 */

  .globl SDL_GetNumDisplayModes
  .p2align 4
  .type SDL_GetNumDisplayModes, %function
#ifndef IMPLIB_EXPORT_SHIMS
  .hidden SDL_GetNumDisplayModes
#endif
SDL_GetNumDisplayModes:
  .cfi_startproc
  .cfi_def_cfa_offset 8  // Return address
  // Intel opt. manual says to
  // "make the fall-through code following a conditional branch be the likely target for a branch with a forward target"
  // to hint static predictor.
  cmpq $0, _libSDL2_so_tramp_table+1744(%rip)
  je 2f
1:
  jmp *_libSDL2_so_tramp_table+1744(%rip)
2:
  pushq $218
  .cfi_adjust_cfa_offset 8
  call _libSDL2_so_save_regs_and_resolve
  addq $8, %rsp
  .cfi_adjust_cfa_offset -8
  jmp 1b
  .cfi_endproc

/*
 * Copyright 2018-2022 Yury Gribov
 *
 * The MIT License (MIT)
 *
 * Use of this source code is governed by MIT license that can be
 * found in the LICENSE.txt file.
 */

  .globl SDL_GetNumRenderDrivers
  .p2align 4
  .type SDL_GetNumRenderDrivers, %function
#ifndef IMPLIB_EXPORT_SHIMS
  .hidden SDL_GetNumRenderDrivers
#endif
SDL_GetNumRenderDrivers:
  .cfi_startproc
  .cfi_def_cfa_offset 8  // Return address
  // Intel opt. manual says to
  // "make the fall-through code following a conditional branch be the likely target for a branch with a forward target"
  // to hint static predictor.
  cmpq $0, _libSDL2_so_tramp_table+1752(%rip)
  je 2f
1:
  jmp *_libSDL2_so_tramp_table+1752(%rip)
2:
  pushq $219
  .cfi_adjust_cfa_offset 8
  call _libSDL2_so_save_regs_and_resolve
  addq $8, %rsp
  .cfi_adjust_cfa_offset -8
  jmp 1b
  .cfi_endproc

/*
 * Copyright 2018-2022 Yury Gribov
 *
 * The MIT License (MIT)
 *
 * Use of this source code is governed by MIT license that can be
 * found in the LICENSE.txt file.
 */

  .globl SDL_GetNumTouchDevices
  .p2align 4
  .type SDL_GetNumTouchDevices, %function
#ifndef IMPLIB_EXPORT_SHIMS
  .hidden SDL_GetNumTouchDevices
#endif
SDL_GetNumTouchDevices:
  .cfi_startproc
  .cfi_def_cfa_offset 8  // Return address
  // Intel opt. manual says to
  // "make the fall-through code following a conditional branch be the likely target for a branch with a forward target"
  // to hint static predictor.
  cmpq $0, _libSDL2_so_tramp_table+1760(%rip)
  je 2f
1:
  jmp *_libSDL2_so_tramp_table+1760(%rip)
2:
  pushq $220
  .cfi_adjust_cfa_offset 8
  call _libSDL2_so_save_regs_and_resolve
  addq $8, %rsp
  .cfi_adjust_cfa_offset -8
  jmp 1b
  .cfi_endproc

/*
 * Copyright 2018-2022 Yury Gribov
 *
 * The MIT License (MIT)
 *
 * Use of this source code is governed by MIT license that can be
 * found in the LICENSE.txt file.
 */

  .globl SDL_GetNumTouchFingers
  .p2align 4
  .type SDL_GetNumTouchFingers, %function
#ifndef IMPLIB_EXPORT_SHIMS
  .hidden SDL_GetNumTouchFingers
#endif
SDL_GetNumTouchFingers:
  .cfi_startproc
  .cfi_def_cfa_offset 8  // Return address
  // Intel opt. manual says to
  // "make the fall-through code following a conditional branch be the likely target for a branch with a forward target"
  // to hint static predictor.
  cmpq $0, _libSDL2_so_tramp_table+1768(%rip)
  je 2f
1:
  jmp *_libSDL2_so_tramp_table+1768(%rip)
2:
  pushq $221
  .cfi_adjust_cfa_offset 8
  call _libSDL2_so_save_regs_and_resolve
  addq $8, %rsp
  .cfi_adjust_cfa_offset -8
  jmp 1b
  .cfi_endproc

/*
 * Copyright 2018-2022 Yury Gribov
 *
 * The MIT License (MIT)
 *
 * Use of this source code is governed by MIT license that can be
 * found in the LICENSE.txt file.
 */

  .globl SDL_GetNumVideoDisplays
  .p2align 4
  .type SDL_GetNumVideoDisplays, %function
#ifndef IMPLIB_EXPORT_SHIMS
  .hidden SDL_GetNumVideoDisplays
#endif
SDL_GetNumVideoDisplays:
  .cfi_startproc
  .cfi_def_cfa_offset 8  // Return address
  // Intel opt. manual says to
  // "make the fall-through code following a conditional branch be the likely target for a branch with a forward target"
  // to hint static predictor.
  cmpq $0, _libSDL2_so_tramp_table+1776(%rip)
  je 2f
1:
  jmp *_libSDL2_so_tramp_table+1776(%rip)
2:
  pushq $222
  .cfi_adjust_cfa_offset 8
  call _libSDL2_so_save_regs_and_resolve
  addq $8, %rsp
  .cfi_adjust_cfa_offset -8
  jmp 1b
  .cfi_endproc

/*
 * Copyright 2018-2022 Yury Gribov
 *
 * The MIT License (MIT)
 *
 * Use of this source code is governed by MIT license that can be
 * found in the LICENSE.txt file.
 */

  .globl SDL_GetNumVideoDrivers
  .p2align 4
  .type SDL_GetNumVideoDrivers, %function
#ifndef IMPLIB_EXPORT_SHIMS
  .hidden SDL_GetNumVideoDrivers
#endif
SDL_GetNumVideoDrivers:
  .cfi_startproc
  .cfi_def_cfa_offset 8  // Return address
  // Intel opt. manual says to
  // "make the fall-through code following a conditional branch be the likely target for a branch with a forward target"
  // to hint static predictor.
  cmpq $0, _libSDL2_so_tramp_table+1784(%rip)
  je 2f
1:
  jmp *_libSDL2_so_tramp_table+1784(%rip)
2:
  pushq $223
  .cfi_adjust_cfa_offset 8
  call _libSDL2_so_save_regs_and_resolve
  addq $8, %rsp
  .cfi_adjust_cfa_offset -8
  jmp 1b
  .cfi_endproc

/*
 * Copyright 2018-2022 Yury Gribov
 *
 * The MIT License (MIT)
 *
 * Use of this source code is governed by MIT license that can be
 * found in the LICENSE.txt file.
 */

  .globl SDL_GetOriginalMemoryFunctions
  .p2align 4
  .type SDL_GetOriginalMemoryFunctions, %function
#ifndef IMPLIB_EXPORT_SHIMS
  .hidden SDL_GetOriginalMemoryFunctions
#endif
SDL_GetOriginalMemoryFunctions:
  .cfi_startproc
  .cfi_def_cfa_offset 8  // Return address
  // Intel opt. manual says to
  // "make the fall-through code following a conditional branch be the likely target for a branch with a forward target"
  // to hint static predictor.
  cmpq $0, _libSDL2_so_tramp_table+1792(%rip)
  je 2f
1:
  jmp *_libSDL2_so_tramp_table+1792(%rip)
2:
  pushq $224
  .cfi_adjust_cfa_offset 8
  call _libSDL2_so_save_regs_and_resolve
  addq $8, %rsp
  .cfi_adjust_cfa_offset -8
  jmp 1b
  .cfi_endproc

/*
 * Copyright 2018-2022 Yury Gribov
 *
 * The MIT License (MIT)
 *
 * Use of this source code is governed by MIT license that can be
 * found in the LICENSE.txt file.
 */

  .globl SDL_GetPerformanceCounter
  .p2align 4
  .type SDL_GetPerformanceCounter, %function
#ifndef IMPLIB_EXPORT_SHIMS
  .hidden SDL_GetPerformanceCounter
#endif
SDL_GetPerformanceCounter:
  .cfi_startproc
  .cfi_def_cfa_offset 8  // Return address
  // Intel opt. manual says to
  // "make the fall-through code following a conditional branch be the likely target for a branch with a forward target"
  // to hint static predictor.
  cmpq $0, _libSDL2_so_tramp_table+1800(%rip)
  je 2f
1:
  jmp *_libSDL2_so_tramp_table+1800(%rip)
2:
  pushq $225
  .cfi_adjust_cfa_offset 8
  call _libSDL2_so_save_regs_and_resolve
  addq $8, %rsp
  .cfi_adjust_cfa_offset -8
  jmp 1b
  .cfi_endproc

/*
 * Copyright 2018-2022 Yury Gribov
 *
 * The MIT License (MIT)
 *
 * Use of this source code is governed by MIT license that can be
 * found in the LICENSE.txt file.
 */

  .globl SDL_GetPerformanceFrequency
  .p2align 4
  .type SDL_GetPerformanceFrequency, %function
#ifndef IMPLIB_EXPORT_SHIMS
  .hidden SDL_GetPerformanceFrequency
#endif
SDL_GetPerformanceFrequency:
  .cfi_startproc
  .cfi_def_cfa_offset 8  // Return address
  // Intel opt. manual says to
  // "make the fall-through code following a conditional branch be the likely target for a branch with a forward target"
  // to hint static predictor.
  cmpq $0, _libSDL2_so_tramp_table+1808(%rip)
  je 2f
1:
  jmp *_libSDL2_so_tramp_table+1808(%rip)
2:
  pushq $226
  .cfi_adjust_cfa_offset 8
  call _libSDL2_so_save_regs_and_resolve
  addq $8, %rsp
  .cfi_adjust_cfa_offset -8
  jmp 1b
  .cfi_endproc

/*
 * Copyright 2018-2022 Yury Gribov
 *
 * The MIT License (MIT)
 *
 * Use of this source code is governed by MIT license that can be
 * found in the LICENSE.txt file.
 */

  .globl SDL_GetPixelFormatName
  .p2align 4
  .type SDL_GetPixelFormatName, %function
#ifndef IMPLIB_EXPORT_SHIMS
  .hidden SDL_GetPixelFormatName
#endif
SDL_GetPixelFormatName:
  .cfi_startproc
  .cfi_def_cfa_offset 8  // Return address
  // Intel opt. manual says to
  // "make the fall-through code following a conditional branch be the likely target for a branch with a forward target"
  // to hint static predictor.
  cmpq $0, _libSDL2_so_tramp_table+1816(%rip)
  je 2f
1:
  jmp *_libSDL2_so_tramp_table+1816(%rip)
2:
  pushq $227
  .cfi_adjust_cfa_offset 8
  call _libSDL2_so_save_regs_and_resolve
  addq $8, %rsp
  .cfi_adjust_cfa_offset -8
  jmp 1b
  .cfi_endproc

/*
 * Copyright 2018-2022 Yury Gribov
 *
 * The MIT License (MIT)
 *
 * Use of this source code is governed by MIT license that can be
 * found in the LICENSE.txt file.
 */

  .globl SDL_GetPlatform
  .p2align 4
  .type SDL_GetPlatform, %function
#ifndef IMPLIB_EXPORT_SHIMS
  .hidden SDL_GetPlatform
#endif
SDL_GetPlatform:
  .cfi_startproc
  .cfi_def_cfa_offset 8  // Return address
  // Intel opt. manual says to
  // "make the fall-through code following a conditional branch be the likely target for a branch with a forward target"
  // to hint static predictor.
  cmpq $0, _libSDL2_so_tramp_table+1824(%rip)
  je 2f
1:
  jmp *_libSDL2_so_tramp_table+1824(%rip)
2:
  pushq $228
  .cfi_adjust_cfa_offset 8
  call _libSDL2_so_save_regs_and_resolve
  addq $8, %rsp
  .cfi_adjust_cfa_offset -8
  jmp 1b
  .cfi_endproc

/*
 * Copyright 2018-2022 Yury Gribov
 *
 * The MIT License (MIT)
 *
 * Use of this source code is governed by MIT license that can be
 * found in the LICENSE.txt file.
 */

  .globl SDL_GetPointDisplayIndex
  .p2align 4
  .type SDL_GetPointDisplayIndex, %function
#ifndef IMPLIB_EXPORT_SHIMS
  .hidden SDL_GetPointDisplayIndex
#endif
SDL_GetPointDisplayIndex:
  .cfi_startproc
  .cfi_def_cfa_offset 8  // Return address
  // Intel opt. manual says to
  // "make the fall-through code following a conditional branch be the likely target for a branch with a forward target"
  // to hint static predictor.
  cmpq $0, _libSDL2_so_tramp_table+1832(%rip)
  je 2f
1:
  jmp *_libSDL2_so_tramp_table+1832(%rip)
2:
  pushq $229
  .cfi_adjust_cfa_offset 8
  call _libSDL2_so_save_regs_and_resolve
  addq $8, %rsp
  .cfi_adjust_cfa_offset -8
  jmp 1b
  .cfi_endproc

/*
 * Copyright 2018-2022 Yury Gribov
 *
 * The MIT License (MIT)
 *
 * Use of this source code is governed by MIT license that can be
 * found in the LICENSE.txt file.
 */

  .globl SDL_GetPowerInfo
  .p2align 4
  .type SDL_GetPowerInfo, %function
#ifndef IMPLIB_EXPORT_SHIMS
  .hidden SDL_GetPowerInfo
#endif
SDL_GetPowerInfo:
  .cfi_startproc
  .cfi_def_cfa_offset 8  // Return address
  // Intel opt. manual says to
  // "make the fall-through code following a conditional branch be the likely target for a branch with a forward target"
  // to hint static predictor.
  cmpq $0, _libSDL2_so_tramp_table+1840(%rip)
  je 2f
1:
  jmp *_libSDL2_so_tramp_table+1840(%rip)
2:
  pushq $230
  .cfi_adjust_cfa_offset 8
  call _libSDL2_so_save_regs_and_resolve
  addq $8, %rsp
  .cfi_adjust_cfa_offset -8
  jmp 1b
  .cfi_endproc

/*
 * Copyright 2018-2022 Yury Gribov
 *
 * The MIT License (MIT)
 *
 * Use of this source code is governed by MIT license that can be
 * found in the LICENSE.txt file.
 */

  .globl SDL_GetPrefPath
  .p2align 4
  .type SDL_GetPrefPath, %function
#ifndef IMPLIB_EXPORT_SHIMS
  .hidden SDL_GetPrefPath
#endif
SDL_GetPrefPath:
  .cfi_startproc
  .cfi_def_cfa_offset 8  // Return address
  // Intel opt. manual says to
  // "make the fall-through code following a conditional branch be the likely target for a branch with a forward target"
  // to hint static predictor.
  cmpq $0, _libSDL2_so_tramp_table+1848(%rip)
  je 2f
1:
  jmp *_libSDL2_so_tramp_table+1848(%rip)
2:
  pushq $231
  .cfi_adjust_cfa_offset 8
  call _libSDL2_so_save_regs_and_resolve
  addq $8, %rsp
  .cfi_adjust_cfa_offset -8
  jmp 1b
  .cfi_endproc

/*
 * Copyright 2018-2022 Yury Gribov
 *
 * The MIT License (MIT)
 *
 * Use of this source code is governed by MIT license that can be
 * found in the LICENSE.txt file.
 */

  .globl SDL_GetPreferredLocales
  .p2align 4
  .type SDL_GetPreferredLocales, %function
#ifndef IMPLIB_EXPORT_SHIMS
  .hidden SDL_GetPreferredLocales
#endif
SDL_GetPreferredLocales:
  .cfi_startproc
  .cfi_def_cfa_offset 8  // Return address
  // Intel opt. manual says to
  // "make the fall-through code following a conditional branch be the likely target for a branch with a forward target"
  // to hint static predictor.
  cmpq $0, _libSDL2_so_tramp_table+1856(%rip)
  je 2f
1:
  jmp *_libSDL2_so_tramp_table+1856(%rip)
2:
  pushq $232
  .cfi_adjust_cfa_offset 8
  call _libSDL2_so_save_regs_and_resolve
  addq $8, %rsp
  .cfi_adjust_cfa_offset -8
  jmp 1b
  .cfi_endproc

/*
 * Copyright 2018-2022 Yury Gribov
 *
 * The MIT License (MIT)
 *
 * Use of this source code is governed by MIT license that can be
 * found in the LICENSE.txt file.
 */

  .globl SDL_GetPrimarySelectionText
  .p2align 4
  .type SDL_GetPrimarySelectionText, %function
#ifndef IMPLIB_EXPORT_SHIMS
  .hidden SDL_GetPrimarySelectionText
#endif
SDL_GetPrimarySelectionText:
  .cfi_startproc
  .cfi_def_cfa_offset 8  // Return address
  // Intel opt. manual says to
  // "make the fall-through code following a conditional branch be the likely target for a branch with a forward target"
  // to hint static predictor.
  cmpq $0, _libSDL2_so_tramp_table+1864(%rip)
  je 2f
1:
  jmp *_libSDL2_so_tramp_table+1864(%rip)
2:
  pushq $233
  .cfi_adjust_cfa_offset 8
  call _libSDL2_so_save_regs_and_resolve
  addq $8, %rsp
  .cfi_adjust_cfa_offset -8
  jmp 1b
  .cfi_endproc

/*
 * Copyright 2018-2022 Yury Gribov
 *
 * The MIT License (MIT)
 *
 * Use of this source code is governed by MIT license that can be
 * found in the LICENSE.txt file.
 */

  .globl SDL_GetQueuedAudioSize
  .p2align 4
  .type SDL_GetQueuedAudioSize, %function
#ifndef IMPLIB_EXPORT_SHIMS
  .hidden SDL_GetQueuedAudioSize
#endif
SDL_GetQueuedAudioSize:
  .cfi_startproc
  .cfi_def_cfa_offset 8  // Return address
  // Intel opt. manual says to
  // "make the fall-through code following a conditional branch be the likely target for a branch with a forward target"
  // to hint static predictor.
  cmpq $0, _libSDL2_so_tramp_table+1872(%rip)
  je 2f
1:
  jmp *_libSDL2_so_tramp_table+1872(%rip)
2:
  pushq $234
  .cfi_adjust_cfa_offset 8
  call _libSDL2_so_save_regs_and_resolve
  addq $8, %rsp
  .cfi_adjust_cfa_offset -8
  jmp 1b
  .cfi_endproc

/*
 * Copyright 2018-2022 Yury Gribov
 *
 * The MIT License (MIT)
 *
 * Use of this source code is governed by MIT license that can be
 * found in the LICENSE.txt file.
 */

  .globl SDL_GetRGB
  .p2align 4
  .type SDL_GetRGB, %function
#ifndef IMPLIB_EXPORT_SHIMS
  .hidden SDL_GetRGB
#endif
SDL_GetRGB:
  .cfi_startproc
  .cfi_def_cfa_offset 8  // Return address
  // Intel opt. manual says to
  // "make the fall-through code following a conditional branch be the likely target for a branch with a forward target"
  // to hint static predictor.
  cmpq $0, _libSDL2_so_tramp_table+1880(%rip)
  je 2f
1:
  jmp *_libSDL2_so_tramp_table+1880(%rip)
2:
  pushq $235
  .cfi_adjust_cfa_offset 8
  call _libSDL2_so_save_regs_and_resolve
  addq $8, %rsp
  .cfi_adjust_cfa_offset -8
  jmp 1b
  .cfi_endproc

/*
 * Copyright 2018-2022 Yury Gribov
 *
 * The MIT License (MIT)
 *
 * Use of this source code is governed by MIT license that can be
 * found in the LICENSE.txt file.
 */

  .globl SDL_GetRGBA
  .p2align 4
  .type SDL_GetRGBA, %function
#ifndef IMPLIB_EXPORT_SHIMS
  .hidden SDL_GetRGBA
#endif
SDL_GetRGBA:
  .cfi_startproc
  .cfi_def_cfa_offset 8  // Return address
  // Intel opt. manual says to
  // "make the fall-through code following a conditional branch be the likely target for a branch with a forward target"
  // to hint static predictor.
  cmpq $0, _libSDL2_so_tramp_table+1888(%rip)
  je 2f
1:
  jmp *_libSDL2_so_tramp_table+1888(%rip)
2:
  pushq $236
  .cfi_adjust_cfa_offset 8
  call _libSDL2_so_save_regs_and_resolve
  addq $8, %rsp
  .cfi_adjust_cfa_offset -8
  jmp 1b
  .cfi_endproc

/*
 * Copyright 2018-2022 Yury Gribov
 *
 * The MIT License (MIT)
 *
 * Use of this source code is governed by MIT license that can be
 * found in the LICENSE.txt file.
 */

  .globl SDL_GetRectDisplayIndex
  .p2align 4
  .type SDL_GetRectDisplayIndex, %function
#ifndef IMPLIB_EXPORT_SHIMS
  .hidden SDL_GetRectDisplayIndex
#endif
SDL_GetRectDisplayIndex:
  .cfi_startproc
  .cfi_def_cfa_offset 8  // Return address
  // Intel opt. manual says to
  // "make the fall-through code following a conditional branch be the likely target for a branch with a forward target"
  // to hint static predictor.
  cmpq $0, _libSDL2_so_tramp_table+1896(%rip)
  je 2f
1:
  jmp *_libSDL2_so_tramp_table+1896(%rip)
2:
  pushq $237
  .cfi_adjust_cfa_offset 8
  call _libSDL2_so_save_regs_and_resolve
  addq $8, %rsp
  .cfi_adjust_cfa_offset -8
  jmp 1b
  .cfi_endproc

/*
 * Copyright 2018-2022 Yury Gribov
 *
 * The MIT License (MIT)
 *
 * Use of this source code is governed by MIT license that can be
 * found in the LICENSE.txt file.
 */

  .globl SDL_GetRelativeMouseMode
  .p2align 4
  .type SDL_GetRelativeMouseMode, %function
#ifndef IMPLIB_EXPORT_SHIMS
  .hidden SDL_GetRelativeMouseMode
#endif
SDL_GetRelativeMouseMode:
  .cfi_startproc
  .cfi_def_cfa_offset 8  // Return address
  // Intel opt. manual says to
  // "make the fall-through code following a conditional branch be the likely target for a branch with a forward target"
  // to hint static predictor.
  cmpq $0, _libSDL2_so_tramp_table+1904(%rip)
  je 2f
1:
  jmp *_libSDL2_so_tramp_table+1904(%rip)
2:
  pushq $238
  .cfi_adjust_cfa_offset 8
  call _libSDL2_so_save_regs_and_resolve
  addq $8, %rsp
  .cfi_adjust_cfa_offset -8
  jmp 1b
  .cfi_endproc

/*
 * Copyright 2018-2022 Yury Gribov
 *
 * The MIT License (MIT)
 *
 * Use of this source code is governed by MIT license that can be
 * found in the LICENSE.txt file.
 */

  .globl SDL_GetRelativeMouseState
  .p2align 4
  .type SDL_GetRelativeMouseState, %function
#ifndef IMPLIB_EXPORT_SHIMS
  .hidden SDL_GetRelativeMouseState
#endif
SDL_GetRelativeMouseState:
  .cfi_startproc
  .cfi_def_cfa_offset 8  // Return address
  // Intel opt. manual says to
  // "make the fall-through code following a conditional branch be the likely target for a branch with a forward target"
  // to hint static predictor.
  cmpq $0, _libSDL2_so_tramp_table+1912(%rip)
  je 2f
1:
  jmp *_libSDL2_so_tramp_table+1912(%rip)
2:
  pushq $239
  .cfi_adjust_cfa_offset 8
  call _libSDL2_so_save_regs_and_resolve
  addq $8, %rsp
  .cfi_adjust_cfa_offset -8
  jmp 1b
  .cfi_endproc

/*
 * Copyright 2018-2022 Yury Gribov
 *
 * The MIT License (MIT)
 *
 * Use of this source code is governed by MIT license that can be
 * found in the LICENSE.txt file.
 */

  .globl SDL_GetRenderDrawBlendMode
  .p2align 4
  .type SDL_GetRenderDrawBlendMode, %function
#ifndef IMPLIB_EXPORT_SHIMS
  .hidden SDL_GetRenderDrawBlendMode
#endif
SDL_GetRenderDrawBlendMode:
  .cfi_startproc
  .cfi_def_cfa_offset 8  // Return address
  // Intel opt. manual says to
  // "make the fall-through code following a conditional branch be the likely target for a branch with a forward target"
  // to hint static predictor.
  cmpq $0, _libSDL2_so_tramp_table+1920(%rip)
  je 2f
1:
  jmp *_libSDL2_so_tramp_table+1920(%rip)
2:
  pushq $240
  .cfi_adjust_cfa_offset 8
  call _libSDL2_so_save_regs_and_resolve
  addq $8, %rsp
  .cfi_adjust_cfa_offset -8
  jmp 1b
  .cfi_endproc

/*
 * Copyright 2018-2022 Yury Gribov
 *
 * The MIT License (MIT)
 *
 * Use of this source code is governed by MIT license that can be
 * found in the LICENSE.txt file.
 */

  .globl SDL_GetRenderDrawColor
  .p2align 4
  .type SDL_GetRenderDrawColor, %function
#ifndef IMPLIB_EXPORT_SHIMS
  .hidden SDL_GetRenderDrawColor
#endif
SDL_GetRenderDrawColor:
  .cfi_startproc
  .cfi_def_cfa_offset 8  // Return address
  // Intel opt. manual says to
  // "make the fall-through code following a conditional branch be the likely target for a branch with a forward target"
  // to hint static predictor.
  cmpq $0, _libSDL2_so_tramp_table+1928(%rip)
  je 2f
1:
  jmp *_libSDL2_so_tramp_table+1928(%rip)
2:
  pushq $241
  .cfi_adjust_cfa_offset 8
  call _libSDL2_so_save_regs_and_resolve
  addq $8, %rsp
  .cfi_adjust_cfa_offset -8
  jmp 1b
  .cfi_endproc

/*
 * Copyright 2018-2022 Yury Gribov
 *
 * The MIT License (MIT)
 *
 * Use of this source code is governed by MIT license that can be
 * found in the LICENSE.txt file.
 */

  .globl SDL_GetRenderDriverInfo
  .p2align 4
  .type SDL_GetRenderDriverInfo, %function
#ifndef IMPLIB_EXPORT_SHIMS
  .hidden SDL_GetRenderDriverInfo
#endif
SDL_GetRenderDriverInfo:
  .cfi_startproc
  .cfi_def_cfa_offset 8  // Return address
  // Intel opt. manual says to
  // "make the fall-through code following a conditional branch be the likely target for a branch with a forward target"
  // to hint static predictor.
  cmpq $0, _libSDL2_so_tramp_table+1936(%rip)
  je 2f
1:
  jmp *_libSDL2_so_tramp_table+1936(%rip)
2:
  pushq $242
  .cfi_adjust_cfa_offset 8
  call _libSDL2_so_save_regs_and_resolve
  addq $8, %rsp
  .cfi_adjust_cfa_offset -8
  jmp 1b
  .cfi_endproc

/*
 * Copyright 2018-2022 Yury Gribov
 *
 * The MIT License (MIT)
 *
 * Use of this source code is governed by MIT license that can be
 * found in the LICENSE.txt file.
 */

  .globl SDL_GetRenderTarget
  .p2align 4
  .type SDL_GetRenderTarget, %function
#ifndef IMPLIB_EXPORT_SHIMS
  .hidden SDL_GetRenderTarget
#endif
SDL_GetRenderTarget:
  .cfi_startproc
  .cfi_def_cfa_offset 8  // Return address
  // Intel opt. manual says to
  // "make the fall-through code following a conditional branch be the likely target for a branch with a forward target"
  // to hint static predictor.
  cmpq $0, _libSDL2_so_tramp_table+1944(%rip)
  je 2f
1:
  jmp *_libSDL2_so_tramp_table+1944(%rip)
2:
  pushq $243
  .cfi_adjust_cfa_offset 8
  call _libSDL2_so_save_regs_and_resolve
  addq $8, %rsp
  .cfi_adjust_cfa_offset -8
  jmp 1b
  .cfi_endproc

/*
 * Copyright 2018-2022 Yury Gribov
 *
 * The MIT License (MIT)
 *
 * Use of this source code is governed by MIT license that can be
 * found in the LICENSE.txt file.
 */

  .globl SDL_GetRenderer
  .p2align 4
  .type SDL_GetRenderer, %function
#ifndef IMPLIB_EXPORT_SHIMS
  .hidden SDL_GetRenderer
#endif
SDL_GetRenderer:
  .cfi_startproc
  .cfi_def_cfa_offset 8  // Return address
  // Intel opt. manual says to
  // "make the fall-through code following a conditional branch be the likely target for a branch with a forward target"
  // to hint static predictor.
  cmpq $0, _libSDL2_so_tramp_table+1952(%rip)
  je 2f
1:
  jmp *_libSDL2_so_tramp_table+1952(%rip)
2:
  pushq $244
  .cfi_adjust_cfa_offset 8
  call _libSDL2_so_save_regs_and_resolve
  addq $8, %rsp
  .cfi_adjust_cfa_offset -8
  jmp 1b
  .cfi_endproc

/*
 * Copyright 2018-2022 Yury Gribov
 *
 * The MIT License (MIT)
 *
 * Use of this source code is governed by MIT license that can be
 * found in the LICENSE.txt file.
 */

  .globl SDL_GetRendererInfo
  .p2align 4
  .type SDL_GetRendererInfo, %function
#ifndef IMPLIB_EXPORT_SHIMS
  .hidden SDL_GetRendererInfo
#endif
SDL_GetRendererInfo:
  .cfi_startproc
  .cfi_def_cfa_offset 8  // Return address
  // Intel opt. manual says to
  // "make the fall-through code following a conditional branch be the likely target for a branch with a forward target"
  // to hint static predictor.
  cmpq $0, _libSDL2_so_tramp_table+1960(%rip)
  je 2f
1:
  jmp *_libSDL2_so_tramp_table+1960(%rip)
2:
  pushq $245
  .cfi_adjust_cfa_offset 8
  call _libSDL2_so_save_regs_and_resolve
  addq $8, %rsp
  .cfi_adjust_cfa_offset -8
  jmp 1b
  .cfi_endproc

/*
 * Copyright 2018-2022 Yury Gribov
 *
 * The MIT License (MIT)
 *
 * Use of this source code is governed by MIT license that can be
 * found in the LICENSE.txt file.
 */

  .globl SDL_GetRendererOutputSize
  .p2align 4
  .type SDL_GetRendererOutputSize, %function
#ifndef IMPLIB_EXPORT_SHIMS
  .hidden SDL_GetRendererOutputSize
#endif
SDL_GetRendererOutputSize:
  .cfi_startproc
  .cfi_def_cfa_offset 8  // Return address
  // Intel opt. manual says to
  // "make the fall-through code following a conditional branch be the likely target for a branch with a forward target"
  // to hint static predictor.
  cmpq $0, _libSDL2_so_tramp_table+1968(%rip)
  je 2f
1:
  jmp *_libSDL2_so_tramp_table+1968(%rip)
2:
  pushq $246
  .cfi_adjust_cfa_offset 8
  call _libSDL2_so_save_regs_and_resolve
  addq $8, %rsp
  .cfi_adjust_cfa_offset -8
  jmp 1b
  .cfi_endproc

/*
 * Copyright 2018-2022 Yury Gribov
 *
 * The MIT License (MIT)
 *
 * Use of this source code is governed by MIT license that can be
 * found in the LICENSE.txt file.
 */

  .globl SDL_GetRevision
  .p2align 4
  .type SDL_GetRevision, %function
#ifndef IMPLIB_EXPORT_SHIMS
  .hidden SDL_GetRevision
#endif
SDL_GetRevision:
  .cfi_startproc
  .cfi_def_cfa_offset 8  // Return address
  // Intel opt. manual says to
  // "make the fall-through code following a conditional branch be the likely target for a branch with a forward target"
  // to hint static predictor.
  cmpq $0, _libSDL2_so_tramp_table+1976(%rip)
  je 2f
1:
  jmp *_libSDL2_so_tramp_table+1976(%rip)
2:
  pushq $247
  .cfi_adjust_cfa_offset 8
  call _libSDL2_so_save_regs_and_resolve
  addq $8, %rsp
  .cfi_adjust_cfa_offset -8
  jmp 1b
  .cfi_endproc

/*
 * Copyright 2018-2022 Yury Gribov
 *
 * The MIT License (MIT)
 *
 * Use of this source code is governed by MIT license that can be
 * found in the LICENSE.txt file.
 */

  .globl SDL_GetRevisionNumber
  .p2align 4
  .type SDL_GetRevisionNumber, %function
#ifndef IMPLIB_EXPORT_SHIMS
  .hidden SDL_GetRevisionNumber
#endif
SDL_GetRevisionNumber:
  .cfi_startproc
  .cfi_def_cfa_offset 8  // Return address
  // Intel opt. manual says to
  // "make the fall-through code following a conditional branch be the likely target for a branch with a forward target"
  // to hint static predictor.
  cmpq $0, _libSDL2_so_tramp_table+1984(%rip)
  je 2f
1:
  jmp *_libSDL2_so_tramp_table+1984(%rip)
2:
  pushq $248
  .cfi_adjust_cfa_offset 8
  call _libSDL2_so_save_regs_and_resolve
  addq $8, %rsp
  .cfi_adjust_cfa_offset -8
  jmp 1b
  .cfi_endproc

/*
 * Copyright 2018-2022 Yury Gribov
 *
 * The MIT License (MIT)
 *
 * Use of this source code is governed by MIT license that can be
 * found in the LICENSE.txt file.
 */

  .globl SDL_GetScancodeFromKey
  .p2align 4
  .type SDL_GetScancodeFromKey, %function
#ifndef IMPLIB_EXPORT_SHIMS
  .hidden SDL_GetScancodeFromKey
#endif
SDL_GetScancodeFromKey:
  .cfi_startproc
  .cfi_def_cfa_offset 8  // Return address
  // Intel opt. manual says to
  // "make the fall-through code following a conditional branch be the likely target for a branch with a forward target"
  // to hint static predictor.
  cmpq $0, _libSDL2_so_tramp_table+1992(%rip)
  je 2f
1:
  jmp *_libSDL2_so_tramp_table+1992(%rip)
2:
  pushq $249
  .cfi_adjust_cfa_offset 8
  call _libSDL2_so_save_regs_and_resolve
  addq $8, %rsp
  .cfi_adjust_cfa_offset -8
  jmp 1b
  .cfi_endproc

/*
 * Copyright 2018-2022 Yury Gribov
 *
 * The MIT License (MIT)
 *
 * Use of this source code is governed by MIT license that can be
 * found in the LICENSE.txt file.
 */

  .globl SDL_GetScancodeFromName
  .p2align 4
  .type SDL_GetScancodeFromName, %function
#ifndef IMPLIB_EXPORT_SHIMS
  .hidden SDL_GetScancodeFromName
#endif
SDL_GetScancodeFromName:
  .cfi_startproc
  .cfi_def_cfa_offset 8  // Return address
  // Intel opt. manual says to
  // "make the fall-through code following a conditional branch be the likely target for a branch with a forward target"
  // to hint static predictor.
  cmpq $0, _libSDL2_so_tramp_table+2000(%rip)
  je 2f
1:
  jmp *_libSDL2_so_tramp_table+2000(%rip)
2:
  pushq $250
  .cfi_adjust_cfa_offset 8
  call _libSDL2_so_save_regs_and_resolve
  addq $8, %rsp
  .cfi_adjust_cfa_offset -8
  jmp 1b
  .cfi_endproc

/*
 * Copyright 2018-2022 Yury Gribov
 *
 * The MIT License (MIT)
 *
 * Use of this source code is governed by MIT license that can be
 * found in the LICENSE.txt file.
 */

  .globl SDL_GetScancodeName
  .p2align 4
  .type SDL_GetScancodeName, %function
#ifndef IMPLIB_EXPORT_SHIMS
  .hidden SDL_GetScancodeName
#endif
SDL_GetScancodeName:
  .cfi_startproc
  .cfi_def_cfa_offset 8  // Return address
  // Intel opt. manual says to
  // "make the fall-through code following a conditional branch be the likely target for a branch with a forward target"
  // to hint static predictor.
  cmpq $0, _libSDL2_so_tramp_table+2008(%rip)
  je 2f
1:
  jmp *_libSDL2_so_tramp_table+2008(%rip)
2:
  pushq $251
  .cfi_adjust_cfa_offset 8
  call _libSDL2_so_save_regs_and_resolve
  addq $8, %rsp
  .cfi_adjust_cfa_offset -8
  jmp 1b
  .cfi_endproc

/*
 * Copyright 2018-2022 Yury Gribov
 *
 * The MIT License (MIT)
 *
 * Use of this source code is governed by MIT license that can be
 * found in the LICENSE.txt file.
 */

  .globl SDL_GetShapedWindowMode
  .p2align 4
  .type SDL_GetShapedWindowMode, %function
#ifndef IMPLIB_EXPORT_SHIMS
  .hidden SDL_GetShapedWindowMode
#endif
SDL_GetShapedWindowMode:
  .cfi_startproc
  .cfi_def_cfa_offset 8  // Return address
  // Intel opt. manual says to
  // "make the fall-through code following a conditional branch be the likely target for a branch with a forward target"
  // to hint static predictor.
  cmpq $0, _libSDL2_so_tramp_table+2016(%rip)
  je 2f
1:
  jmp *_libSDL2_so_tramp_table+2016(%rip)
2:
  pushq $252
  .cfi_adjust_cfa_offset 8
  call _libSDL2_so_save_regs_and_resolve
  addq $8, %rsp
  .cfi_adjust_cfa_offset -8
  jmp 1b
  .cfi_endproc

/*
 * Copyright 2018-2022 Yury Gribov
 *
 * The MIT License (MIT)
 *
 * Use of this source code is governed by MIT license that can be
 * found in the LICENSE.txt file.
 */

  .globl SDL_GetSurfaceAlphaMod
  .p2align 4
  .type SDL_GetSurfaceAlphaMod, %function
#ifndef IMPLIB_EXPORT_SHIMS
  .hidden SDL_GetSurfaceAlphaMod
#endif
SDL_GetSurfaceAlphaMod:
  .cfi_startproc
  .cfi_def_cfa_offset 8  // Return address
  // Intel opt. manual says to
  // "make the fall-through code following a conditional branch be the likely target for a branch with a forward target"
  // to hint static predictor.
  cmpq $0, _libSDL2_so_tramp_table+2024(%rip)
  je 2f
1:
  jmp *_libSDL2_so_tramp_table+2024(%rip)
2:
  pushq $253
  .cfi_adjust_cfa_offset 8
  call _libSDL2_so_save_regs_and_resolve
  addq $8, %rsp
  .cfi_adjust_cfa_offset -8
  jmp 1b
  .cfi_endproc

/*
 * Copyright 2018-2022 Yury Gribov
 *
 * The MIT License (MIT)
 *
 * Use of this source code is governed by MIT license that can be
 * found in the LICENSE.txt file.
 */

  .globl SDL_GetSurfaceBlendMode
  .p2align 4
  .type SDL_GetSurfaceBlendMode, %function
#ifndef IMPLIB_EXPORT_SHIMS
  .hidden SDL_GetSurfaceBlendMode
#endif
SDL_GetSurfaceBlendMode:
  .cfi_startproc
  .cfi_def_cfa_offset 8  // Return address
  // Intel opt. manual says to
  // "make the fall-through code following a conditional branch be the likely target for a branch with a forward target"
  // to hint static predictor.
  cmpq $0, _libSDL2_so_tramp_table+2032(%rip)
  je 2f
1:
  jmp *_libSDL2_so_tramp_table+2032(%rip)
2:
  pushq $254
  .cfi_adjust_cfa_offset 8
  call _libSDL2_so_save_regs_and_resolve
  addq $8, %rsp
  .cfi_adjust_cfa_offset -8
  jmp 1b
  .cfi_endproc

/*
 * Copyright 2018-2022 Yury Gribov
 *
 * The MIT License (MIT)
 *
 * Use of this source code is governed by MIT license that can be
 * found in the LICENSE.txt file.
 */

  .globl SDL_GetSurfaceColorMod
  .p2align 4
  .type SDL_GetSurfaceColorMod, %function
#ifndef IMPLIB_EXPORT_SHIMS
  .hidden SDL_GetSurfaceColorMod
#endif
SDL_GetSurfaceColorMod:
  .cfi_startproc
  .cfi_def_cfa_offset 8  // Return address
  // Intel opt. manual says to
  // "make the fall-through code following a conditional branch be the likely target for a branch with a forward target"
  // to hint static predictor.
  cmpq $0, _libSDL2_so_tramp_table+2040(%rip)
  je 2f
1:
  jmp *_libSDL2_so_tramp_table+2040(%rip)
2:
  pushq $255
  .cfi_adjust_cfa_offset 8
  call _libSDL2_so_save_regs_and_resolve
  addq $8, %rsp
  .cfi_adjust_cfa_offset -8
  jmp 1b
  .cfi_endproc

/*
 * Copyright 2018-2022 Yury Gribov
 *
 * The MIT License (MIT)
 *
 * Use of this source code is governed by MIT license that can be
 * found in the LICENSE.txt file.
 */

  .globl SDL_GetSystemRAM
  .p2align 4
  .type SDL_GetSystemRAM, %function
#ifndef IMPLIB_EXPORT_SHIMS
  .hidden SDL_GetSystemRAM
#endif
SDL_GetSystemRAM:
  .cfi_startproc
  .cfi_def_cfa_offset 8  // Return address
  // Intel opt. manual says to
  // "make the fall-through code following a conditional branch be the likely target for a branch with a forward target"
  // to hint static predictor.
  cmpq $0, _libSDL2_so_tramp_table+2048(%rip)
  je 2f
1:
  jmp *_libSDL2_so_tramp_table+2048(%rip)
2:
  pushq $256
  .cfi_adjust_cfa_offset 8
  call _libSDL2_so_save_regs_and_resolve
  addq $8, %rsp
  .cfi_adjust_cfa_offset -8
  jmp 1b
  .cfi_endproc

/*
 * Copyright 2018-2022 Yury Gribov
 *
 * The MIT License (MIT)
 *
 * Use of this source code is governed by MIT license that can be
 * found in the LICENSE.txt file.
 */

  .globl SDL_GetTextureAlphaMod
  .p2align 4
  .type SDL_GetTextureAlphaMod, %function
#ifndef IMPLIB_EXPORT_SHIMS
  .hidden SDL_GetTextureAlphaMod
#endif
SDL_GetTextureAlphaMod:
  .cfi_startproc
  .cfi_def_cfa_offset 8  // Return address
  // Intel opt. manual says to
  // "make the fall-through code following a conditional branch be the likely target for a branch with a forward target"
  // to hint static predictor.
  cmpq $0, _libSDL2_so_tramp_table+2056(%rip)
  je 2f
1:
  jmp *_libSDL2_so_tramp_table+2056(%rip)
2:
  pushq $257
  .cfi_adjust_cfa_offset 8
  call _libSDL2_so_save_regs_and_resolve
  addq $8, %rsp
  .cfi_adjust_cfa_offset -8
  jmp 1b
  .cfi_endproc

/*
 * Copyright 2018-2022 Yury Gribov
 *
 * The MIT License (MIT)
 *
 * Use of this source code is governed by MIT license that can be
 * found in the LICENSE.txt file.
 */

  .globl SDL_GetTextureBlendMode
  .p2align 4
  .type SDL_GetTextureBlendMode, %function
#ifndef IMPLIB_EXPORT_SHIMS
  .hidden SDL_GetTextureBlendMode
#endif
SDL_GetTextureBlendMode:
  .cfi_startproc
  .cfi_def_cfa_offset 8  // Return address
  // Intel opt. manual says to
  // "make the fall-through code following a conditional branch be the likely target for a branch with a forward target"
  // to hint static predictor.
  cmpq $0, _libSDL2_so_tramp_table+2064(%rip)
  je 2f
1:
  jmp *_libSDL2_so_tramp_table+2064(%rip)
2:
  pushq $258
  .cfi_adjust_cfa_offset 8
  call _libSDL2_so_save_regs_and_resolve
  addq $8, %rsp
  .cfi_adjust_cfa_offset -8
  jmp 1b
  .cfi_endproc

/*
 * Copyright 2018-2022 Yury Gribov
 *
 * The MIT License (MIT)
 *
 * Use of this source code is governed by MIT license that can be
 * found in the LICENSE.txt file.
 */

  .globl SDL_GetTextureColorMod
  .p2align 4
  .type SDL_GetTextureColorMod, %function
#ifndef IMPLIB_EXPORT_SHIMS
  .hidden SDL_GetTextureColorMod
#endif
SDL_GetTextureColorMod:
  .cfi_startproc
  .cfi_def_cfa_offset 8  // Return address
  // Intel opt. manual says to
  // "make the fall-through code following a conditional branch be the likely target for a branch with a forward target"
  // to hint static predictor.
  cmpq $0, _libSDL2_so_tramp_table+2072(%rip)
  je 2f
1:
  jmp *_libSDL2_so_tramp_table+2072(%rip)
2:
  pushq $259
  .cfi_adjust_cfa_offset 8
  call _libSDL2_so_save_regs_and_resolve
  addq $8, %rsp
  .cfi_adjust_cfa_offset -8
  jmp 1b
  .cfi_endproc

/*
 * Copyright 2018-2022 Yury Gribov
 *
 * The MIT License (MIT)
 *
 * Use of this source code is governed by MIT license that can be
 * found in the LICENSE.txt file.
 */

  .globl SDL_GetTextureScaleMode
  .p2align 4
  .type SDL_GetTextureScaleMode, %function
#ifndef IMPLIB_EXPORT_SHIMS
  .hidden SDL_GetTextureScaleMode
#endif
SDL_GetTextureScaleMode:
  .cfi_startproc
  .cfi_def_cfa_offset 8  // Return address
  // Intel opt. manual says to
  // "make the fall-through code following a conditional branch be the likely target for a branch with a forward target"
  // to hint static predictor.
  cmpq $0, _libSDL2_so_tramp_table+2080(%rip)
  je 2f
1:
  jmp *_libSDL2_so_tramp_table+2080(%rip)
2:
  pushq $260
  .cfi_adjust_cfa_offset 8
  call _libSDL2_so_save_regs_and_resolve
  addq $8, %rsp
  .cfi_adjust_cfa_offset -8
  jmp 1b
  .cfi_endproc

/*
 * Copyright 2018-2022 Yury Gribov
 *
 * The MIT License (MIT)
 *
 * Use of this source code is governed by MIT license that can be
 * found in the LICENSE.txt file.
 */

  .globl SDL_GetTextureUserData
  .p2align 4
  .type SDL_GetTextureUserData, %function
#ifndef IMPLIB_EXPORT_SHIMS
  .hidden SDL_GetTextureUserData
#endif
SDL_GetTextureUserData:
  .cfi_startproc
  .cfi_def_cfa_offset 8  // Return address
  // Intel opt. manual says to
  // "make the fall-through code following a conditional branch be the likely target for a branch with a forward target"
  // to hint static predictor.
  cmpq $0, _libSDL2_so_tramp_table+2088(%rip)
  je 2f
1:
  jmp *_libSDL2_so_tramp_table+2088(%rip)
2:
  pushq $261
  .cfi_adjust_cfa_offset 8
  call _libSDL2_so_save_regs_and_resolve
  addq $8, %rsp
  .cfi_adjust_cfa_offset -8
  jmp 1b
  .cfi_endproc

/*
 * Copyright 2018-2022 Yury Gribov
 *
 * The MIT License (MIT)
 *
 * Use of this source code is governed by MIT license that can be
 * found in the LICENSE.txt file.
 */

  .globl SDL_GetThreadID
  .p2align 4
  .type SDL_GetThreadID, %function
#ifndef IMPLIB_EXPORT_SHIMS
  .hidden SDL_GetThreadID
#endif
SDL_GetThreadID:
  .cfi_startproc
  .cfi_def_cfa_offset 8  // Return address
  // Intel opt. manual says to
  // "make the fall-through code following a conditional branch be the likely target for a branch with a forward target"
  // to hint static predictor.
  cmpq $0, _libSDL2_so_tramp_table+2096(%rip)
  je 2f
1:
  jmp *_libSDL2_so_tramp_table+2096(%rip)
2:
  pushq $262
  .cfi_adjust_cfa_offset 8
  call _libSDL2_so_save_regs_and_resolve
  addq $8, %rsp
  .cfi_adjust_cfa_offset -8
  jmp 1b
  .cfi_endproc

/*
 * Copyright 2018-2022 Yury Gribov
 *
 * The MIT License (MIT)
 *
 * Use of this source code is governed by MIT license that can be
 * found in the LICENSE.txt file.
 */

  .globl SDL_GetThreadName
  .p2align 4
  .type SDL_GetThreadName, %function
#ifndef IMPLIB_EXPORT_SHIMS
  .hidden SDL_GetThreadName
#endif
SDL_GetThreadName:
  .cfi_startproc
  .cfi_def_cfa_offset 8  // Return address
  // Intel opt. manual says to
  // "make the fall-through code following a conditional branch be the likely target for a branch with a forward target"
  // to hint static predictor.
  cmpq $0, _libSDL2_so_tramp_table+2104(%rip)
  je 2f
1:
  jmp *_libSDL2_so_tramp_table+2104(%rip)
2:
  pushq $263
  .cfi_adjust_cfa_offset 8
  call _libSDL2_so_save_regs_and_resolve
  addq $8, %rsp
  .cfi_adjust_cfa_offset -8
  jmp 1b
  .cfi_endproc

/*
 * Copyright 2018-2022 Yury Gribov
 *
 * The MIT License (MIT)
 *
 * Use of this source code is governed by MIT license that can be
 * found in the LICENSE.txt file.
 */

  .globl SDL_GetTicks
  .p2align 4
  .type SDL_GetTicks, %function
#ifndef IMPLIB_EXPORT_SHIMS
  .hidden SDL_GetTicks
#endif
SDL_GetTicks:
  .cfi_startproc
  .cfi_def_cfa_offset 8  // Return address
  // Intel opt. manual says to
  // "make the fall-through code following a conditional branch be the likely target for a branch with a forward target"
  // to hint static predictor.
  cmpq $0, _libSDL2_so_tramp_table+2112(%rip)
  je 2f
1:
  jmp *_libSDL2_so_tramp_table+2112(%rip)
2:
  pushq $264
  .cfi_adjust_cfa_offset 8
  call _libSDL2_so_save_regs_and_resolve
  addq $8, %rsp
  .cfi_adjust_cfa_offset -8
  jmp 1b
  .cfi_endproc

/*
 * Copyright 2018-2022 Yury Gribov
 *
 * The MIT License (MIT)
 *
 * Use of this source code is governed by MIT license that can be
 * found in the LICENSE.txt file.
 */

  .globl SDL_GetTicks64
  .p2align 4
  .type SDL_GetTicks64, %function
#ifndef IMPLIB_EXPORT_SHIMS
  .hidden SDL_GetTicks64
#endif
SDL_GetTicks64:
  .cfi_startproc
  .cfi_def_cfa_offset 8  // Return address
  // Intel opt. manual says to
  // "make the fall-through code following a conditional branch be the likely target for a branch with a forward target"
  // to hint static predictor.
  cmpq $0, _libSDL2_so_tramp_table+2120(%rip)
  je 2f
1:
  jmp *_libSDL2_so_tramp_table+2120(%rip)
2:
  pushq $265
  .cfi_adjust_cfa_offset 8
  call _libSDL2_so_save_regs_and_resolve
  addq $8, %rsp
  .cfi_adjust_cfa_offset -8
  jmp 1b
  .cfi_endproc

/*
 * Copyright 2018-2022 Yury Gribov
 *
 * The MIT License (MIT)
 *
 * Use of this source code is governed by MIT license that can be
 * found in the LICENSE.txt file.
 */

  .globl SDL_GetTouchDevice
  .p2align 4
  .type SDL_GetTouchDevice, %function
#ifndef IMPLIB_EXPORT_SHIMS
  .hidden SDL_GetTouchDevice
#endif
SDL_GetTouchDevice:
  .cfi_startproc
  .cfi_def_cfa_offset 8  // Return address
  // Intel opt. manual says to
  // "make the fall-through code following a conditional branch be the likely target for a branch with a forward target"
  // to hint static predictor.
  cmpq $0, _libSDL2_so_tramp_table+2128(%rip)
  je 2f
1:
  jmp *_libSDL2_so_tramp_table+2128(%rip)
2:
  pushq $266
  .cfi_adjust_cfa_offset 8
  call _libSDL2_so_save_regs_and_resolve
  addq $8, %rsp
  .cfi_adjust_cfa_offset -8
  jmp 1b
  .cfi_endproc

/*
 * Copyright 2018-2022 Yury Gribov
 *
 * The MIT License (MIT)
 *
 * Use of this source code is governed by MIT license that can be
 * found in the LICENSE.txt file.
 */

  .globl SDL_GetTouchDeviceType
  .p2align 4
  .type SDL_GetTouchDeviceType, %function
#ifndef IMPLIB_EXPORT_SHIMS
  .hidden SDL_GetTouchDeviceType
#endif
SDL_GetTouchDeviceType:
  .cfi_startproc
  .cfi_def_cfa_offset 8  // Return address
  // Intel opt. manual says to
  // "make the fall-through code following a conditional branch be the likely target for a branch with a forward target"
  // to hint static predictor.
  cmpq $0, _libSDL2_so_tramp_table+2136(%rip)
  je 2f
1:
  jmp *_libSDL2_so_tramp_table+2136(%rip)
2:
  pushq $267
  .cfi_adjust_cfa_offset 8
  call _libSDL2_so_save_regs_and_resolve
  addq $8, %rsp
  .cfi_adjust_cfa_offset -8
  jmp 1b
  .cfi_endproc

/*
 * Copyright 2018-2022 Yury Gribov
 *
 * The MIT License (MIT)
 *
 * Use of this source code is governed by MIT license that can be
 * found in the LICENSE.txt file.
 */

  .globl SDL_GetTouchFinger
  .p2align 4
  .type SDL_GetTouchFinger, %function
#ifndef IMPLIB_EXPORT_SHIMS
  .hidden SDL_GetTouchFinger
#endif
SDL_GetTouchFinger:
  .cfi_startproc
  .cfi_def_cfa_offset 8  // Return address
  // Intel opt. manual says to
  // "make the fall-through code following a conditional branch be the likely target for a branch with a forward target"
  // to hint static predictor.
  cmpq $0, _libSDL2_so_tramp_table+2144(%rip)
  je 2f
1:
  jmp *_libSDL2_so_tramp_table+2144(%rip)
2:
  pushq $268
  .cfi_adjust_cfa_offset 8
  call _libSDL2_so_save_regs_and_resolve
  addq $8, %rsp
  .cfi_adjust_cfa_offset -8
  jmp 1b
  .cfi_endproc

/*
 * Copyright 2018-2022 Yury Gribov
 *
 * The MIT License (MIT)
 *
 * Use of this source code is governed by MIT license that can be
 * found in the LICENSE.txt file.
 */

  .globl SDL_GetTouchName
  .p2align 4
  .type SDL_GetTouchName, %function
#ifndef IMPLIB_EXPORT_SHIMS
  .hidden SDL_GetTouchName
#endif
SDL_GetTouchName:
  .cfi_startproc
  .cfi_def_cfa_offset 8  // Return address
  // Intel opt. manual says to
  // "make the fall-through code following a conditional branch be the likely target for a branch with a forward target"
  // to hint static predictor.
  cmpq $0, _libSDL2_so_tramp_table+2152(%rip)
  je 2f
1:
  jmp *_libSDL2_so_tramp_table+2152(%rip)
2:
  pushq $269
  .cfi_adjust_cfa_offset 8
  call _libSDL2_so_save_regs_and_resolve
  addq $8, %rsp
  .cfi_adjust_cfa_offset -8
  jmp 1b
  .cfi_endproc

/*
 * Copyright 2018-2022 Yury Gribov
 *
 * The MIT License (MIT)
 *
 * Use of this source code is governed by MIT license that can be
 * found in the LICENSE.txt file.
 */

  .globl SDL_GetVersion
  .p2align 4
  .type SDL_GetVersion, %function
#ifndef IMPLIB_EXPORT_SHIMS
  .hidden SDL_GetVersion
#endif
SDL_GetVersion:
  .cfi_startproc
  .cfi_def_cfa_offset 8  // Return address
  // Intel opt. manual says to
  // "make the fall-through code following a conditional branch be the likely target for a branch with a forward target"
  // to hint static predictor.
  cmpq $0, _libSDL2_so_tramp_table+2160(%rip)
  je 2f
1:
  jmp *_libSDL2_so_tramp_table+2160(%rip)
2:
  pushq $270
  .cfi_adjust_cfa_offset 8
  call _libSDL2_so_save_regs_and_resolve
  addq $8, %rsp
  .cfi_adjust_cfa_offset -8
  jmp 1b
  .cfi_endproc

/*
 * Copyright 2018-2022 Yury Gribov
 *
 * The MIT License (MIT)
 *
 * Use of this source code is governed by MIT license that can be
 * found in the LICENSE.txt file.
 */

  .globl SDL_GetVideoDriver
  .p2align 4
  .type SDL_GetVideoDriver, %function
#ifndef IMPLIB_EXPORT_SHIMS
  .hidden SDL_GetVideoDriver
#endif
SDL_GetVideoDriver:
  .cfi_startproc
  .cfi_def_cfa_offset 8  // Return address
  // Intel opt. manual says to
  // "make the fall-through code following a conditional branch be the likely target for a branch with a forward target"
  // to hint static predictor.
  cmpq $0, _libSDL2_so_tramp_table+2168(%rip)
  je 2f
1:
  jmp *_libSDL2_so_tramp_table+2168(%rip)
2:
  pushq $271
  .cfi_adjust_cfa_offset 8
  call _libSDL2_so_save_regs_and_resolve
  addq $8, %rsp
  .cfi_adjust_cfa_offset -8
  jmp 1b
  .cfi_endproc

/*
 * Copyright 2018-2022 Yury Gribov
 *
 * The MIT License (MIT)
 *
 * Use of this source code is governed by MIT license that can be
 * found in the LICENSE.txt file.
 */

  .globl SDL_GetWindowBordersSize
  .p2align 4
  .type SDL_GetWindowBordersSize, %function
#ifndef IMPLIB_EXPORT_SHIMS
  .hidden SDL_GetWindowBordersSize
#endif
SDL_GetWindowBordersSize:
  .cfi_startproc
  .cfi_def_cfa_offset 8  // Return address
  // Intel opt. manual says to
  // "make the fall-through code following a conditional branch be the likely target for a branch with a forward target"
  // to hint static predictor.
  cmpq $0, _libSDL2_so_tramp_table+2176(%rip)
  je 2f
1:
  jmp *_libSDL2_so_tramp_table+2176(%rip)
2:
  pushq $272
  .cfi_adjust_cfa_offset 8
  call _libSDL2_so_save_regs_and_resolve
  addq $8, %rsp
  .cfi_adjust_cfa_offset -8
  jmp 1b
  .cfi_endproc

/*
 * Copyright 2018-2022 Yury Gribov
 *
 * The MIT License (MIT)
 *
 * Use of this source code is governed by MIT license that can be
 * found in the LICENSE.txt file.
 */

  .globl SDL_GetWindowBrightness
  .p2align 4
  .type SDL_GetWindowBrightness, %function
#ifndef IMPLIB_EXPORT_SHIMS
  .hidden SDL_GetWindowBrightness
#endif
SDL_GetWindowBrightness:
  .cfi_startproc
  .cfi_def_cfa_offset 8  // Return address
  // Intel opt. manual says to
  // "make the fall-through code following a conditional branch be the likely target for a branch with a forward target"
  // to hint static predictor.
  cmpq $0, _libSDL2_so_tramp_table+2184(%rip)
  je 2f
1:
  jmp *_libSDL2_so_tramp_table+2184(%rip)
2:
  pushq $273
  .cfi_adjust_cfa_offset 8
  call _libSDL2_so_save_regs_and_resolve
  addq $8, %rsp
  .cfi_adjust_cfa_offset -8
  jmp 1b
  .cfi_endproc

/*
 * Copyright 2018-2022 Yury Gribov
 *
 * The MIT License (MIT)
 *
 * Use of this source code is governed by MIT license that can be
 * found in the LICENSE.txt file.
 */

  .globl SDL_GetWindowData
  .p2align 4
  .type SDL_GetWindowData, %function
#ifndef IMPLIB_EXPORT_SHIMS
  .hidden SDL_GetWindowData
#endif
SDL_GetWindowData:
  .cfi_startproc
  .cfi_def_cfa_offset 8  // Return address
  // Intel opt. manual says to
  // "make the fall-through code following a conditional branch be the likely target for a branch with a forward target"
  // to hint static predictor.
  cmpq $0, _libSDL2_so_tramp_table+2192(%rip)
  je 2f
1:
  jmp *_libSDL2_so_tramp_table+2192(%rip)
2:
  pushq $274
  .cfi_adjust_cfa_offset 8
  call _libSDL2_so_save_regs_and_resolve
  addq $8, %rsp
  .cfi_adjust_cfa_offset -8
  jmp 1b
  .cfi_endproc

/*
 * Copyright 2018-2022 Yury Gribov
 *
 * The MIT License (MIT)
 *
 * Use of this source code is governed by MIT license that can be
 * found in the LICENSE.txt file.
 */

  .globl SDL_GetWindowDisplayIndex
  .p2align 4
  .type SDL_GetWindowDisplayIndex, %function
#ifndef IMPLIB_EXPORT_SHIMS
  .hidden SDL_GetWindowDisplayIndex
#endif
SDL_GetWindowDisplayIndex:
  .cfi_startproc
  .cfi_def_cfa_offset 8  // Return address
  // Intel opt. manual says to
  // "make the fall-through code following a conditional branch be the likely target for a branch with a forward target"
  // to hint static predictor.
  cmpq $0, _libSDL2_so_tramp_table+2200(%rip)
  je 2f
1:
  jmp *_libSDL2_so_tramp_table+2200(%rip)
2:
  pushq $275
  .cfi_adjust_cfa_offset 8
  call _libSDL2_so_save_regs_and_resolve
  addq $8, %rsp
  .cfi_adjust_cfa_offset -8
  jmp 1b
  .cfi_endproc

/*
 * Copyright 2018-2022 Yury Gribov
 *
 * The MIT License (MIT)
 *
 * Use of this source code is governed by MIT license that can be
 * found in the LICENSE.txt file.
 */

  .globl SDL_GetWindowDisplayMode
  .p2align 4
  .type SDL_GetWindowDisplayMode, %function
#ifndef IMPLIB_EXPORT_SHIMS
  .hidden SDL_GetWindowDisplayMode
#endif
SDL_GetWindowDisplayMode:
  .cfi_startproc
  .cfi_def_cfa_offset 8  // Return address
  // Intel opt. manual says to
  // "make the fall-through code following a conditional branch be the likely target for a branch with a forward target"
  // to hint static predictor.
  cmpq $0, _libSDL2_so_tramp_table+2208(%rip)
  je 2f
1:
  jmp *_libSDL2_so_tramp_table+2208(%rip)
2:
  pushq $276
  .cfi_adjust_cfa_offset 8
  call _libSDL2_so_save_regs_and_resolve
  addq $8, %rsp
  .cfi_adjust_cfa_offset -8
  jmp 1b
  .cfi_endproc

/*
 * Copyright 2018-2022 Yury Gribov
 *
 * The MIT License (MIT)
 *
 * Use of this source code is governed by MIT license that can be
 * found in the LICENSE.txt file.
 */

  .globl SDL_GetWindowFlags
  .p2align 4
  .type SDL_GetWindowFlags, %function
#ifndef IMPLIB_EXPORT_SHIMS
  .hidden SDL_GetWindowFlags
#endif
SDL_GetWindowFlags:
  .cfi_startproc
  .cfi_def_cfa_offset 8  // Return address
  // Intel opt. manual says to
  // "make the fall-through code following a conditional branch be the likely target for a branch with a forward target"
  // to hint static predictor.
  cmpq $0, _libSDL2_so_tramp_table+2216(%rip)
  je 2f
1:
  jmp *_libSDL2_so_tramp_table+2216(%rip)
2:
  pushq $277
  .cfi_adjust_cfa_offset 8
  call _libSDL2_so_save_regs_and_resolve
  addq $8, %rsp
  .cfi_adjust_cfa_offset -8
  jmp 1b
  .cfi_endproc

/*
 * Copyright 2018-2022 Yury Gribov
 *
 * The MIT License (MIT)
 *
 * Use of this source code is governed by MIT license that can be
 * found in the LICENSE.txt file.
 */

  .globl SDL_GetWindowFromID
  .p2align 4
  .type SDL_GetWindowFromID, %function
#ifndef IMPLIB_EXPORT_SHIMS
  .hidden SDL_GetWindowFromID
#endif
SDL_GetWindowFromID:
  .cfi_startproc
  .cfi_def_cfa_offset 8  // Return address
  // Intel opt. manual says to
  // "make the fall-through code following a conditional branch be the likely target for a branch with a forward target"
  // to hint static predictor.
  cmpq $0, _libSDL2_so_tramp_table+2224(%rip)
  je 2f
1:
  jmp *_libSDL2_so_tramp_table+2224(%rip)
2:
  pushq $278
  .cfi_adjust_cfa_offset 8
  call _libSDL2_so_save_regs_and_resolve
  addq $8, %rsp
  .cfi_adjust_cfa_offset -8
  jmp 1b
  .cfi_endproc

/*
 * Copyright 2018-2022 Yury Gribov
 *
 * The MIT License (MIT)
 *
 * Use of this source code is governed by MIT license that can be
 * found in the LICENSE.txt file.
 */

  .globl SDL_GetWindowGammaRamp
  .p2align 4
  .type SDL_GetWindowGammaRamp, %function
#ifndef IMPLIB_EXPORT_SHIMS
  .hidden SDL_GetWindowGammaRamp
#endif
SDL_GetWindowGammaRamp:
  .cfi_startproc
  .cfi_def_cfa_offset 8  // Return address
  // Intel opt. manual says to
  // "make the fall-through code following a conditional branch be the likely target for a branch with a forward target"
  // to hint static predictor.
  cmpq $0, _libSDL2_so_tramp_table+2232(%rip)
  je 2f
1:
  jmp *_libSDL2_so_tramp_table+2232(%rip)
2:
  pushq $279
  .cfi_adjust_cfa_offset 8
  call _libSDL2_so_save_regs_and_resolve
  addq $8, %rsp
  .cfi_adjust_cfa_offset -8
  jmp 1b
  .cfi_endproc

/*
 * Copyright 2018-2022 Yury Gribov
 *
 * The MIT License (MIT)
 *
 * Use of this source code is governed by MIT license that can be
 * found in the LICENSE.txt file.
 */

  .globl SDL_GetWindowGrab
  .p2align 4
  .type SDL_GetWindowGrab, %function
#ifndef IMPLIB_EXPORT_SHIMS
  .hidden SDL_GetWindowGrab
#endif
SDL_GetWindowGrab:
  .cfi_startproc
  .cfi_def_cfa_offset 8  // Return address
  // Intel opt. manual says to
  // "make the fall-through code following a conditional branch be the likely target for a branch with a forward target"
  // to hint static predictor.
  cmpq $0, _libSDL2_so_tramp_table+2240(%rip)
  je 2f
1:
  jmp *_libSDL2_so_tramp_table+2240(%rip)
2:
  pushq $280
  .cfi_adjust_cfa_offset 8
  call _libSDL2_so_save_regs_and_resolve
  addq $8, %rsp
  .cfi_adjust_cfa_offset -8
  jmp 1b
  .cfi_endproc

/*
 * Copyright 2018-2022 Yury Gribov
 *
 * The MIT License (MIT)
 *
 * Use of this source code is governed by MIT license that can be
 * found in the LICENSE.txt file.
 */

  .globl SDL_GetWindowICCProfile
  .p2align 4
  .type SDL_GetWindowICCProfile, %function
#ifndef IMPLIB_EXPORT_SHIMS
  .hidden SDL_GetWindowICCProfile
#endif
SDL_GetWindowICCProfile:
  .cfi_startproc
  .cfi_def_cfa_offset 8  // Return address
  // Intel opt. manual says to
  // "make the fall-through code following a conditional branch be the likely target for a branch with a forward target"
  // to hint static predictor.
  cmpq $0, _libSDL2_so_tramp_table+2248(%rip)
  je 2f
1:
  jmp *_libSDL2_so_tramp_table+2248(%rip)
2:
  pushq $281
  .cfi_adjust_cfa_offset 8
  call _libSDL2_so_save_regs_and_resolve
  addq $8, %rsp
  .cfi_adjust_cfa_offset -8
  jmp 1b
  .cfi_endproc

/*
 * Copyright 2018-2022 Yury Gribov
 *
 * The MIT License (MIT)
 *
 * Use of this source code is governed by MIT license that can be
 * found in the LICENSE.txt file.
 */

  .globl SDL_GetWindowID
  .p2align 4
  .type SDL_GetWindowID, %function
#ifndef IMPLIB_EXPORT_SHIMS
  .hidden SDL_GetWindowID
#endif
SDL_GetWindowID:
  .cfi_startproc
  .cfi_def_cfa_offset 8  // Return address
  // Intel opt. manual says to
  // "make the fall-through code following a conditional branch be the likely target for a branch with a forward target"
  // to hint static predictor.
  cmpq $0, _libSDL2_so_tramp_table+2256(%rip)
  je 2f
1:
  jmp *_libSDL2_so_tramp_table+2256(%rip)
2:
  pushq $282
  .cfi_adjust_cfa_offset 8
  call _libSDL2_so_save_regs_and_resolve
  addq $8, %rsp
  .cfi_adjust_cfa_offset -8
  jmp 1b
  .cfi_endproc

/*
 * Copyright 2018-2022 Yury Gribov
 *
 * The MIT License (MIT)
 *
 * Use of this source code is governed by MIT license that can be
 * found in the LICENSE.txt file.
 */

  .globl SDL_GetWindowKeyboardGrab
  .p2align 4
  .type SDL_GetWindowKeyboardGrab, %function
#ifndef IMPLIB_EXPORT_SHIMS
  .hidden SDL_GetWindowKeyboardGrab
#endif
SDL_GetWindowKeyboardGrab:
  .cfi_startproc
  .cfi_def_cfa_offset 8  // Return address
  // Intel opt. manual says to
  // "make the fall-through code following a conditional branch be the likely target for a branch with a forward target"
  // to hint static predictor.
  cmpq $0, _libSDL2_so_tramp_table+2264(%rip)
  je 2f
1:
  jmp *_libSDL2_so_tramp_table+2264(%rip)
2:
  pushq $283
  .cfi_adjust_cfa_offset 8
  call _libSDL2_so_save_regs_and_resolve
  addq $8, %rsp
  .cfi_adjust_cfa_offset -8
  jmp 1b
  .cfi_endproc

/*
 * Copyright 2018-2022 Yury Gribov
 *
 * The MIT License (MIT)
 *
 * Use of this source code is governed by MIT license that can be
 * found in the LICENSE.txt file.
 */

  .globl SDL_GetWindowMaximumSize
  .p2align 4
  .type SDL_GetWindowMaximumSize, %function
#ifndef IMPLIB_EXPORT_SHIMS
  .hidden SDL_GetWindowMaximumSize
#endif
SDL_GetWindowMaximumSize:
  .cfi_startproc
  .cfi_def_cfa_offset 8  // Return address
  // Intel opt. manual says to
  // "make the fall-through code following a conditional branch be the likely target for a branch with a forward target"
  // to hint static predictor.
  cmpq $0, _libSDL2_so_tramp_table+2272(%rip)
  je 2f
1:
  jmp *_libSDL2_so_tramp_table+2272(%rip)
2:
  pushq $284
  .cfi_adjust_cfa_offset 8
  call _libSDL2_so_save_regs_and_resolve
  addq $8, %rsp
  .cfi_adjust_cfa_offset -8
  jmp 1b
  .cfi_endproc

/*
 * Copyright 2018-2022 Yury Gribov
 *
 * The MIT License (MIT)
 *
 * Use of this source code is governed by MIT license that can be
 * found in the LICENSE.txt file.
 */

  .globl SDL_GetWindowMinimumSize
  .p2align 4
  .type SDL_GetWindowMinimumSize, %function
#ifndef IMPLIB_EXPORT_SHIMS
  .hidden SDL_GetWindowMinimumSize
#endif
SDL_GetWindowMinimumSize:
  .cfi_startproc
  .cfi_def_cfa_offset 8  // Return address
  // Intel opt. manual says to
  // "make the fall-through code following a conditional branch be the likely target for a branch with a forward target"
  // to hint static predictor.
  cmpq $0, _libSDL2_so_tramp_table+2280(%rip)
  je 2f
1:
  jmp *_libSDL2_so_tramp_table+2280(%rip)
2:
  pushq $285
  .cfi_adjust_cfa_offset 8
  call _libSDL2_so_save_regs_and_resolve
  addq $8, %rsp
  .cfi_adjust_cfa_offset -8
  jmp 1b
  .cfi_endproc

/*
 * Copyright 2018-2022 Yury Gribov
 *
 * The MIT License (MIT)
 *
 * Use of this source code is governed by MIT license that can be
 * found in the LICENSE.txt file.
 */

  .globl SDL_GetWindowMouseGrab
  .p2align 4
  .type SDL_GetWindowMouseGrab, %function
#ifndef IMPLIB_EXPORT_SHIMS
  .hidden SDL_GetWindowMouseGrab
#endif
SDL_GetWindowMouseGrab:
  .cfi_startproc
  .cfi_def_cfa_offset 8  // Return address
  // Intel opt. manual says to
  // "make the fall-through code following a conditional branch be the likely target for a branch with a forward target"
  // to hint static predictor.
  cmpq $0, _libSDL2_so_tramp_table+2288(%rip)
  je 2f
1:
  jmp *_libSDL2_so_tramp_table+2288(%rip)
2:
  pushq $286
  .cfi_adjust_cfa_offset 8
  call _libSDL2_so_save_regs_and_resolve
  addq $8, %rsp
  .cfi_adjust_cfa_offset -8
  jmp 1b
  .cfi_endproc

/*
 * Copyright 2018-2022 Yury Gribov
 *
 * The MIT License (MIT)
 *
 * Use of this source code is governed by MIT license that can be
 * found in the LICENSE.txt file.
 */

  .globl SDL_GetWindowMouseRect
  .p2align 4
  .type SDL_GetWindowMouseRect, %function
#ifndef IMPLIB_EXPORT_SHIMS
  .hidden SDL_GetWindowMouseRect
#endif
SDL_GetWindowMouseRect:
  .cfi_startproc
  .cfi_def_cfa_offset 8  // Return address
  // Intel opt. manual says to
  // "make the fall-through code following a conditional branch be the likely target for a branch with a forward target"
  // to hint static predictor.
  cmpq $0, _libSDL2_so_tramp_table+2296(%rip)
  je 2f
1:
  jmp *_libSDL2_so_tramp_table+2296(%rip)
2:
  pushq $287
  .cfi_adjust_cfa_offset 8
  call _libSDL2_so_save_regs_and_resolve
  addq $8, %rsp
  .cfi_adjust_cfa_offset -8
  jmp 1b
  .cfi_endproc

/*
 * Copyright 2018-2022 Yury Gribov
 *
 * The MIT License (MIT)
 *
 * Use of this source code is governed by MIT license that can be
 * found in the LICENSE.txt file.
 */

  .globl SDL_GetWindowOpacity
  .p2align 4
  .type SDL_GetWindowOpacity, %function
#ifndef IMPLIB_EXPORT_SHIMS
  .hidden SDL_GetWindowOpacity
#endif
SDL_GetWindowOpacity:
  .cfi_startproc
  .cfi_def_cfa_offset 8  // Return address
  // Intel opt. manual says to
  // "make the fall-through code following a conditional branch be the likely target for a branch with a forward target"
  // to hint static predictor.
  cmpq $0, _libSDL2_so_tramp_table+2304(%rip)
  je 2f
1:
  jmp *_libSDL2_so_tramp_table+2304(%rip)
2:
  pushq $288
  .cfi_adjust_cfa_offset 8
  call _libSDL2_so_save_regs_and_resolve
  addq $8, %rsp
  .cfi_adjust_cfa_offset -8
  jmp 1b
  .cfi_endproc

/*
 * Copyright 2018-2022 Yury Gribov
 *
 * The MIT License (MIT)
 *
 * Use of this source code is governed by MIT license that can be
 * found in the LICENSE.txt file.
 */

  .globl SDL_GetWindowPixelFormat
  .p2align 4
  .type SDL_GetWindowPixelFormat, %function
#ifndef IMPLIB_EXPORT_SHIMS
  .hidden SDL_GetWindowPixelFormat
#endif
SDL_GetWindowPixelFormat:
  .cfi_startproc
  .cfi_def_cfa_offset 8  // Return address
  // Intel opt. manual says to
  // "make the fall-through code following a conditional branch be the likely target for a branch with a forward target"
  // to hint static predictor.
  cmpq $0, _libSDL2_so_tramp_table+2312(%rip)
  je 2f
1:
  jmp *_libSDL2_so_tramp_table+2312(%rip)
2:
  pushq $289
  .cfi_adjust_cfa_offset 8
  call _libSDL2_so_save_regs_and_resolve
  addq $8, %rsp
  .cfi_adjust_cfa_offset -8
  jmp 1b
  .cfi_endproc

/*
 * Copyright 2018-2022 Yury Gribov
 *
 * The MIT License (MIT)
 *
 * Use of this source code is governed by MIT license that can be
 * found in the LICENSE.txt file.
 */

  .globl SDL_GetWindowPosition
  .p2align 4
  .type SDL_GetWindowPosition, %function
#ifndef IMPLIB_EXPORT_SHIMS
  .hidden SDL_GetWindowPosition
#endif
SDL_GetWindowPosition:
  .cfi_startproc
  .cfi_def_cfa_offset 8  // Return address
  // Intel opt. manual says to
  // "make the fall-through code following a conditional branch be the likely target for a branch with a forward target"
  // to hint static predictor.
  cmpq $0, _libSDL2_so_tramp_table+2320(%rip)
  je 2f
1:
  jmp *_libSDL2_so_tramp_table+2320(%rip)
2:
  pushq $290
  .cfi_adjust_cfa_offset 8
  call _libSDL2_so_save_regs_and_resolve
  addq $8, %rsp
  .cfi_adjust_cfa_offset -8
  jmp 1b
  .cfi_endproc

/*
 * Copyright 2018-2022 Yury Gribov
 *
 * The MIT License (MIT)
 *
 * Use of this source code is governed by MIT license that can be
 * found in the LICENSE.txt file.
 */

  .globl SDL_GetWindowSize
  .p2align 4
  .type SDL_GetWindowSize, %function
#ifndef IMPLIB_EXPORT_SHIMS
  .hidden SDL_GetWindowSize
#endif
SDL_GetWindowSize:
  .cfi_startproc
  .cfi_def_cfa_offset 8  // Return address
  // Intel opt. manual says to
  // "make the fall-through code following a conditional branch be the likely target for a branch with a forward target"
  // to hint static predictor.
  cmpq $0, _libSDL2_so_tramp_table+2328(%rip)
  je 2f
1:
  jmp *_libSDL2_so_tramp_table+2328(%rip)
2:
  pushq $291
  .cfi_adjust_cfa_offset 8
  call _libSDL2_so_save_regs_and_resolve
  addq $8, %rsp
  .cfi_adjust_cfa_offset -8
  jmp 1b
  .cfi_endproc

/*
 * Copyright 2018-2022 Yury Gribov
 *
 * The MIT License (MIT)
 *
 * Use of this source code is governed by MIT license that can be
 * found in the LICENSE.txt file.
 */

  .globl SDL_GetWindowSizeInPixels
  .p2align 4
  .type SDL_GetWindowSizeInPixels, %function
#ifndef IMPLIB_EXPORT_SHIMS
  .hidden SDL_GetWindowSizeInPixels
#endif
SDL_GetWindowSizeInPixels:
  .cfi_startproc
  .cfi_def_cfa_offset 8  // Return address
  // Intel opt. manual says to
  // "make the fall-through code following a conditional branch be the likely target for a branch with a forward target"
  // to hint static predictor.
  cmpq $0, _libSDL2_so_tramp_table+2336(%rip)
  je 2f
1:
  jmp *_libSDL2_so_tramp_table+2336(%rip)
2:
  pushq $292
  .cfi_adjust_cfa_offset 8
  call _libSDL2_so_save_regs_and_resolve
  addq $8, %rsp
  .cfi_adjust_cfa_offset -8
  jmp 1b
  .cfi_endproc

/*
 * Copyright 2018-2022 Yury Gribov
 *
 * The MIT License (MIT)
 *
